(dp1
((I4
I10
tp2
(I10
I5
tp3
tp4
I0
s((I9
I4
tp5
(I8
I6
tp6
tp7
I0
s((I6
I6
tp8
(I17
I7
tp9
tp10
I0
s((I6
I7
tp11
(I21
I7
tp12
tp13
I0
s((I6
I9
tp14
(I12
I7
tp15
tp16
I0
s(g15
(I21
I6
tp17
tp18
I0
s((I21
I5
tp19
(I16
I8
tp20
tp21
I0
s(g14
(I5
I10
tp22
tp23
F0.20270270270270271
s(g20
(I7
I7
tp24
tp25
I0
s((I11
I6
tp26
(I20
I4
tp27
tp28
I0
s((I22
I6
tp29
(I16
I7
tp30
tp31
I0
s((I14
I8
tp32
(I3
I9
tp33
tp34
I0
s((I22
I7
tp35
(I15
I8
tp36
tp37
I0
s((I10
I4
tp38
(I20
I6
tp39
tp40
I0
s(g17
(I16
I6
tp41
tp42
I0
s((I6
I8
tp43
g2
tp44
I0
s((I20
I5
tp45
g20
tp46
I0
s((I11
I8
tp47
g38
tp48
I0
s((I19
I5
tp49
g8
tp50
I0
s(g36
(I18
I4
tp51
tp52
I0
s(g24
(I11
I7
tp53
tp54
I0
s(g24
(I15
I9
tp55
tp56
I0
s((I12
I6
tp57
g38
tp58
I0
s(g12
(I16
I9
tp59
tp60
I0
s(g55
g24
tp61
I0
s((I22
I8
tp62
g17
tp63
I0
s(g35
g51
tp64
I0
s(g55
g19
tp65
I0
s((I18
I5
tp66
(I8
I5
tp67
tp68
I0
s(g30
(I14
I9
tp69
tp70
I0
s((I5
I7
tp71
g3
tp72
I0
s(g41
g12
tp73
I0
s((I5
I9
tp74
(I21
I9
tp75
tp76
I0
s((I15
I10
tp77
g53
tp78
I0
s(g35
(I12
I9
tp79
tp80
I0
s(g26
(I17
I6
tp81
tp82
I0
s((I18
I6
tp83
g66
tp84
I0
s(g41
g62
tp85
I0
s((I9
I5
tp86
(I22
I9
tp87
tp88
I0
s(g38
g32
tp89
I0
s(g43
g12
tp90
I0
s(g74
(I15
I7
tp91
tp92
I0
s((I7
I5
tp93
(I9
I6
tp94
tp95
I0
s(g3
g67
tp96
I0
s(g53
(I19
I4
tp97
tp98
I0
s(g6
(I19
I6
tp99
tp100
I0
s(g26
g47
tp101
I0
s(g14
g9
tp102
I0
s(g14
(I10
I6
tp103
tp104
I0
s(g49
(I2
I9
tp105
tp106
I0
s(g59
(I11
I5
tp107
tp108
I0
s(g20
g86
tp109
I0
s((I8
I4
tp110
g41
tp111
I0
s(g55
g30
tp112
I0
s(g2
(I14
I10
tp113
tp114
I0
s(g75
(I4
I8
tp115
tp116
I0
s((I5
I8
tp117
g59
tp118
I0
s(g79
g113
tp119
I0
s(g93
g14
tp120
I0
s(g6
g74
tp121
I0
s(g75
g27
tp122
I0
s(g107
(I17
I8
tp123
tp124
I0
s(g38
g11
tp125
I0
s(g81
g27
tp126
I0
s(g30
(I8
I7
tp127
tp128
I0
s(g8
g19
tp129
I0
s(g57
g47
tp130
I0
s((I7
I8
tp131
g26
tp132
I0
s(g77
g26
tp133
I0
s(g20
g79
tp134
I0
s(g113
(I13
I7
tp135
tp136
I0
s(g86
g59
tp137
I0
s(g26
g87
tp138
I0
s(g75
g22
tp139
I0
s((I13
I8
tp140
g3
tp141
I0
s(g32
g26
tp142
I0
s(g26
g67
tp143
I0
s(g22
g41
tp144
I0
s(g19
(I10
I7
tp145
tp146
I0
s(g75
(I13
I9
tp147
tp148
I0
s(g107
g14
tp149
I0
s(g22
g93
tp150
I0
s((I13
I10
tp151
g131
tp152
I0
s(g51
g12
tp153
I0
s(g20
g36
tp154
I0
s(g53
g2
tp155
I0
s(g38
g71
tp156
I0
s(g27
g99
tp157
I0
s(g49
g71
tp158
I0
s(g27
(I7
I6
tp159
tp160
I0
s(g24
g5
tp161
I0
s(g27
(I18
I7
tp162
tp163
I0
s(g83
g59
tp164
I0
s(g113
g83
tp165
I0
s(g26
g117
tp166
I0
s(g115
g19
tp167
I0
s(g12
g45
tp168
I0
s(g6
g8
tp169
I0
s(g87
g8
tp170
I0
s(g26
g131
tp171
I0
s((I17
I5
tp172
g135
tp173
I0
s(g19
g159
tp174
I0
s(g147
g49
tp175
I0
s(g5
g110
tp176
I0
s(g51
g5
tp177
I0
s(g105
g41
tp178
I0
s(g30
g140
tp179
I0
s(g20
g74
tp180
I0
s(g49
g87
tp181
I0
s(g105
g38
tp182
I0
s(g8
g22
tp183
I0
s(g6
g86
tp184
I0
s(g151
g62
tp185
I0
s(g86
g55
tp186
I0
s(g33
g135
tp187
I0
s((I21
I8
tp188
g39
tp189
I0
s(g15
g5
tp190
I0
s((I12
I8
tp191
g135
tp192
I0
s(g15
g147
tp193
I0
s(g151
g36
tp194
I0
s(g107
g15
tp195
I0
s(g51
g15
tp196
I0
s(g110
g162
tp197
I0
s(g69
g75
tp198
I0
s(g172
g8
tp199
I0
s(g3
g9
tp200
I0
s(g159
g59
tp201
I0
s(g51
g14
tp202
I0
s(g93
g99
tp203
I0
s(g45
g162
tp204
I0
s(g86
g51
tp205
I0
s(g38
g94
tp206
I0
s(g93
g87
tp207
I0
s(g131
g15
tp208
I0
s(g67
g145
tp209
I0
s(g110
g51
tp210
I0
s(g17
g15
tp211
I0
s(g93
g127
tp212
I0
s(g91
g49
tp213
I0
s(g75
g2
tp214
I0
s(g51
g59
tp215
I0
s(g59
g49
tp216
I0
s(g79
g45
tp217
I0
s(g79
g188
tp218
I0
s(g36
g87
tp219
I0
s(g188
g5
tp220
I0
s(g103
(I3
I10
tp221
tp222
I0
s(g47
g57
tp223
I0
s(g91
g221
tp224
I0
s(g22
g191
tp225
I0
s(g191
g66
tp226
I0
s(g39
g33
tp227
I0
s(g91
g66
tp228
I0
s(g162
g93
tp229
I0
s(g51
g159
tp230
I0
s(g105
g162
tp231
I0
s(g26
g51
tp232
I0
s(g115
g77
tp233
I0
s(g172
g86
tp234
I0
s(g74
g69
tp235
I0
s(g83
g107
tp236
I0
s(g51
g117
tp237
I0
s(g97
g75
tp238
I0
s(g115
g79
tp239
I0
s(g93
g117
tp240
I0
s(g69
g79
tp241
I0
s(g47
g59
tp242
I0
s(g113
g115
tp243
I0
s(g43
g14
tp244
F0.62068965517241381
s(g12
g27
tp245
I0
s(g115
g51
tp246
I0
s(g57
g67
tp247
I0
s(g172
g79
tp248
I0
s(g99
g140
tp249
I0
s(g74
g191
tp250
I0
s(g8
g77
tp251
I0
s(g11
g93
tp252
I0
s(g41
g66
tp253
I0
s(g87
g41
tp254
I0
s(g19
g33
tp255
I0
s(g29
g33
tp256
I0
s(g12
g41
tp257
I0
s(g172
g69
tp258
I0
s(g123
g123
tp259
F0.48466257668711654
s(g107
g55
tp260
I0
s(g81
g162
tp261
I0
s(g53
g172
tp262
I0
s(g86
g22
tp263
I0
s(g123
g145
tp264
I0
s(g8
g59
tp265
I0
s(g15
g43
tp266
I0
s(g147
g30
tp267
I0
s(g87
g94
tp268
I0
s(g15
g32
tp269
I0
s(g151
g83
tp270
I0
s(g172
g55
tp271
I0
s(g43
g93
tp272
I0
s((I4
I9
tp273
g19
tp274
I0
s(g57
g110
tp275
I0
s(g81
g53
tp276
I0
s(g39
g131
tp277
I0
s(g105
g8
tp278
I0
s(g15
g221
tp279
I0
s(g145
g74
tp280
I0
s(g162
g41
tp281
I0
s(g39
g99
tp282
F0.059288537549407112
s(g26
g83
tp283
I0
s(g93
g62
tp284
I0
s(g17
g8
tp285
I0
s(g26
g15
tp286
I0
s(g15
g53
tp287
I0
s(g11
g26
tp288
I0
s(g162
g38
tp289
I0
s(g62
g74
tp290
I0
s(g9
g9
tp291
F0.69202898550724634
s(g62
g162
tp292
I0
s(g26
g273
tp293
I0
s(g91
g99
tp294
I0
s(g27
g94
tp295
I0
s(g57
g140
tp296
I0
s(g57
g53
tp297
I0
s(g27
g172
tp298
I0
s(g81
g87
tp299
I0
s(g83
g22
tp300
I0
s(g123
g159
tp301
I0
s(g131
g62
tp302
I0
s(g74
g32
tp303
I0
s(g91
g6
tp304
I0
s(g8
g91
tp305
I0
s(g15
g66
tp306
I0
s(g77
g24
tp307
I0
s(g71
g62
tp308
I0
s(g81
g3
tp309
I0
s(g115
g5
tp310
I0
s(g11
g41
tp311
I0
s(g127
g57
tp312
I0
s(g191
g27
tp313
I0
s(g8
g110
tp314
I0
s(g86
g35
tp315
I0
s(g172
g71
tp316
I0
s(g159
g79
tp317
I0
s(g33
g110
tp318
I0
s(g57
g113
tp319
I0
s(g172
g162
tp320
I0
s(g107
g71
tp321
I0
s(g26
g86
tp322
I0
s(g67
g30
tp323
I0
s(g117
g91
tp324
I0
s(g43
g71
tp325
I0
s(g20
g94
tp326
I0
s(g191
g17
tp327
I0
s(g8
g29
tp328
I0
s(g107
g107
tp329
F0.43624161073825501
s(g38
g41
tp330
I0
s(g79
g9
tp331
I0
s(g14
g67
tp332
I0
s(g221
g47
tp333
I0
s(g36
g29
tp334
I0
s(g47
g91
tp335
I0
s(g27
g15
tp336
I0
s(g145
g30
tp337
I0
s(g2
g67
tp338
I0
s(g57
g91
tp339
I0
s(g79
g87
tp340
I0
s(g103
g43
tp341
I0
s(g32
g39
tp342
I0
s(g62
g59
tp343
I0
s(g123
g15
tp344
I0
s(g9
g66
tp345
I0
s(g39
g97
tp346
I0
s(g32
g49
tp347
I0
s(g71
g99
tp348
I0
s(g29
g273
tp349
I0
s(g12
g6
tp350
I0
s(g123
g51
tp351
I0
s(g30
g221
tp352
I0
s(g140
g86
tp353
I0
s(g162
g162
tp354
F0.064516129032258063
s(g36
g113
tp355
I0
s(g26
g35
tp356
I0
s(g94
g131
tp357
I0
s(g77
g140
tp358
I0
s(g26
g69
tp359
I0
s(g53
g86
tp360
I0
s(g24
g159
tp361
I0
s(g32
g221
tp362
I0
s(g22
g77
tp363
I0
s(g145
g93
tp364
I0
s(g117
g69
tp365
I0
s(g93
g93
tp366
F0.5
s(g38
g99
tp367
I0
s(g5
g145
tp368
I0
s(g33
g24
tp369
I0
s(g49
g140
tp370
I0
s(g29
g75
tp371
I0
s(g87
g55
tp372
I0
s(g15
g38
tp373
I0
s(g145
g36
tp374
I0
s(g117
g131
tp375
I0
s(g140
g66
tp376
I0
s(g79
g81
tp377
I0
s(g97
g53
tp378
I0
s(g83
g115
tp379
I0
s(g22
g29
tp380
I0
s(g131
g113
tp381
I0
s(g30
g94
tp382
I0
s(g107
g26
tp383
F0.35570469798657717
s(g43
g74
tp384
I0
s(g5
g191
tp385
I0
s(g19
g188
tp386
I0
s(g41
g69
tp387
I0
s(g110
g77
tp388
I0
s(g47
g36
tp389
I0
s(g127
g99
tp390
I0
s(g41
g36
tp391
I0
s(g45
g131
tp392
I0
s(g32
g38
tp393
I0
s(g55
g39
tp394
I0
s(g20
g22
tp395
I0
s(g79
g26
tp396
I0
s(g36
g3
tp397
I0
s(g22
g75
tp398
I0
s(g117
g127
tp399
I0
s(g45
g159
tp400
I0
s(g103
g15
tp401
I0
s(g115
g69
tp402
I0
s(g87
g11
tp403
I0
s(g94
g53
tp404
I0
s(g62
g24
tp405
I0
s(g20
g273
tp406
I0
s(g32
g140
tp407
I0
s(g24
g32
tp408
I0
s(g99
g57
tp409
I0
s(g93
g47
tp410
I0
s(g162
g30
tp411
I0
s(g86
g115
tp412
I0
s(g135
g45
tp413
I0
s(g39
g188
tp414
I0
s(g71
g59
tp415
I0
s(g49
g53
tp416
I0
s(g57
g115
tp417
I0
s(g103
g97
tp418
I0
s(g38
g117
tp419
I0
s(g135
g93
tp420
I0
s(g127
g105
tp421
I0
s(g39
g135
tp422
I0
s(g53
g127
tp423
I0
s(g172
g29
tp424
I0
s(g83
g6
tp425
I0
s(g117
g87
tp426
I0
s(g67
g105
tp427
I0
s(g191
g9
tp428
I0
s(g151
g103
tp429
I0
s(g5
g49
tp430
I0
s(g30
g105
tp431
I0
s(g3
g47
tp432
I0
s(g38
g51
tp433
I0
s(g105
g140
tp434
I0
s(g24
g35
tp435
I0
s(g103
g93
tp436
I0
s(g59
g77
tp437
F0.21511627906976744
s(g27
g17
tp438
I0
s(g53
g162
tp439
I0
s(g39
g32
tp440
I0
s(g151
g188
tp441
I0
s(g162
g33
tp442
I0
s(g81
g36
tp443
I0
s(g20
g71
tp444
I0
s(g59
g53
tp445
I0
s(g8
g115
tp446
I0
s(g36
g83
tp447
I0
s(g45
g71
tp448
I0
s(g107
g94
tp449
I0
s(g9
g47
tp450
I0
s(g30
g24
tp451
I0
s(g221
g103
tp452
I0
s(g113
g19
tp453
I0
s(g47
g74
tp454
I0
s(g172
g94
tp455
I0
s(g41
g86
tp456
I0
s(g140
g27
tp457
I0
s(g12
g115
tp458
I0
s(g172
g47
tp459
I0
s(g15
g22
tp460
I0
s(g27
g12
tp461
I0
s(g69
g41
tp462
I0
s(g79
g67
tp463
I0
s(g17
g49
tp464
I0
s(g71
g32
tp465
I0
s(g35
g27
tp466
I0
s(g87
g87
tp467
I0
s(g140
g151
tp468
I0
s(g59
g43
tp469
I0
s(g14
g131
tp470
I0
s(g22
g145
tp471
I0
s(g3
g41
tp472
I0
s(g22
g67
tp473
I0
s(g91
g39
tp474
I0
s(g79
g32
tp475
I0
s(g127
g97
tp476
I0
s(g62
g94
tp477
I0
s(g49
g39
tp478
I0
s(g55
g86
tp479
I0
s(g79
g43
tp480
I0
s(g81
g107
tp481
I0
s(g8
g15
tp482
I0
s(g51
g17
tp483
I0
s(g91
g67
tp484
I0
s(g79
g127
tp485
I0
s(g123
g172
tp486
I0
s(g140
g83
tp487
I0
s(g24
g67
tp488
I0
s(g79
g36
tp489
I0
s(g273
g147
tp490
I0
s(g2
g14
tp491
I0
s(g24
g22
tp492
I0
s(g77
g41
tp493
I0
s(g131
g41
tp494
I0
s(g30
g57
tp495
I0
s(g131
g45
tp496
I0
s(g110
g32
tp497
I0
s(g17
g162
tp498
I0
s(g105
g36
tp499
I0
s(g39
g91
tp500
I0
s(g53
g12
tp501
I0
s(g81
g140
tp502
I0
s(g83
g29
tp503
I0
s(g57
g191
tp504
I0
s(g191
g191
tp505
F0.0898876404494382
s(g110
g67
tp506
I0
s(g93
g145
tp507
I0
s(g131
g27
tp508
I0
s(g273
g27
tp509
I0
s(g75
g3
tp510
I0
s(g71
g172
tp511
I0
s(g105
g39
tp512
I0
s(g94
g27
tp513
I0
s(g59
g94
tp514
I0
s(g110
g53
tp515
I0
s(g51
g29
tp516
I0
s(g51
g22
tp517
I0
s(g273
g57
tp518
I0
s(g36
g79
tp519
I0
s(g47
g17
tp520
I0
s(g2
g24
tp521
I0
s(g9
g135
tp522
I0
s(g123
g113
tp523
I0
s(g43
g39
tp524
I0
s(g93
g51
tp525
I0
s(g9
g103
tp526
I0
s(g81
g8
tp527
I0
s(g2
g140
tp528
I0
s(g99
g105
tp529
I0
s(g22
g273
tp530
I0
s(g11
g5
tp531
I0
s(g135
g140
tp532
F0.8571428571428571
s(g29
g43
tp533
I0
s(g77
g30
tp534
I0
s(g113
g159
tp535
I0
s(g87
g75
tp536
I0
s(g9
g39
tp537
I0
s(g62
g75
tp538
F0.048888888888888891
s(g86
g47
tp539
I0
s(g105
g30
tp540
I0
s(g86
g151
tp541
I0
s(g22
g53
tp542
I0
s(g74
g172
tp543
I0
s(g145
g11
tp544
I0
s(g55
g33
tp545
I0
s(g79
g140
tp546
I0
s(g87
g69
tp547
I0
s(g191
g99
tp548
I0
s(g94
g162
tp549
I0
s(g8
g17
tp550
I0
s(g75
g15
tp551
I0
s(g93
g97
tp552
I0
s(g29
g53
tp553
I0
s(g2
g15
tp554
I0
s(g87
g19
tp555
I0
s(g71
g22
tp556
I0
s(g32
g19
tp557
I0
s(g53
g11
tp558
I0
s(g2
g83
tp559
I0
s(g140
g53
tp560
I0
s(g145
g14
tp561
I0
s(g26
g55
tp562
I0
s(g3
g74
tp563
I0
s(g140
g11
tp564
I0
s(g12
g103
tp565
I0
s(g71
g147
tp566
I0
s(g41
g2
tp567
I0
s(g140
g117
tp568
I0
s(g43
g22
tp569
I0
s(g71
g5
tp570
I0
s(g19
g26
tp571
I0
s(g151
g9
tp572
I0
s(g66
g131
tp573
I0
s(g20
g51
tp574
I0
s(g83
g47
tp575
I0
s(g29
g117
tp576
I0
s(g5
g123
tp577
I0
s(g29
g162
tp578
I0
s(g113
g15
tp579
I0
s(g67
g151
tp580
I0
s(g74
g135
tp581
I0
s(g22
g221
tp582
I0
s(g145
g113
tp583
I0
s(g74
g113
tp584
I0
s(g135
g24
tp585
I0
s(g162
g3
tp586
I0
s(g57
g105
tp587
I0
s(g33
g147
tp588
I0
s(g69
g51
tp589
I0
s(g35
g188
tp590
I0
s(g83
g62
tp591
I0
s(g273
g32
tp592
I0
s(g5
g273
tp593
I0
s(g67
g135
tp594
I0
s(g94
g55
tp595
I0
s(g11
g75
tp596
I0
s(g67
g113
tp597
I0
s(g17
g86
tp598
I0
s(g49
g99
tp599
F0.13240418118466898
s(g123
g5
tp600
I0
s(g6
g19
tp601
I0
s(g77
g131
tp602
I0
s(g75
g135
tp603
I0
s(g11
g22
tp604
I0
s(g33
g49
tp605
I0
s(g41
g67
tp606
I0
s(g57
g33
tp607
I0
s(g127
g12
tp608
I0
s(g36
g74
tp609
I0
s(g19
g11
tp610
I0
s(g47
g12
tp611
I0
s(g8
g107
tp612
I0
s(g45
g17
tp613
I0
s(g117
g83
tp614
I0
s(g191
g117
tp615
I0
s(g147
g32
tp616
I0
s(g6
g75
tp617
I0
s(g145
g188
tp618
I0
s(g172
g5
tp619
I0
s(g2
g97
tp620
I0
s(g188
g93
tp621
I0
s(g74
g81
tp622
I0
s(g127
g81
tp623
I0
s(g147
g67
tp624
I0
s(g17
g3
tp625
I0
s(g188
g41
tp626
I0
s(g151
g41
tp627
I0
s(g49
g107
tp628
I0
s(g162
g36
tp629
I0
s(g45
g221
tp630
I0
s(g131
g87
tp631
I0
s(g83
g131
tp632
I0
s(g27
g47
tp633
I0
s(g41
g55
tp634
I0
s(g107
g97
tp635
I0
s(g99
g26
tp636
I0
s(g93
g49
tp637
I0
s(g9
g71
tp638
I0
s(g35
g11
tp639
I0
s(g147
g33
tp640
I0
s(g221
g49
tp641
I0
s(g71
g2
tp642
I0
s(g87
g83
tp643
I0
s(g59
g9
tp644
I0
s(g140
g103
tp645
I0
s(g47
g99
tp646
I0
s(g135
g2
tp647
I0
s(g86
g66
tp648
I0
s(g93
g273
tp649
I0
s(g27
g66
tp650
I0
s(g22
g5
tp651
I0
s(g145
g273
tp652
I0
s(g33
g11
tp653
I0
s(g113
g191
tp654
I0
s(g69
g103
tp655
I0
s(g94
g110
tp656
I0
s(g24
g38
tp657
I0
s(g49
g33
tp658
I0
s(g83
g117
tp659
I0
s(g47
g273
tp660
I0
s(g103
g47
tp661
I0
s(g145
g127
tp662
I0
s(g14
g36
tp663
I0
s(g97
g22
tp664
I0
s(g113
g93
tp665
I0
s(g26
g9
tp666
I0
s(g45
g45
tp667
F0.17886178861788618
s(g162
g17
tp668
I0
s(g33
g75
tp669
I0
s(g107
g45
tp670
I0
s(g147
g27
tp671
I0
s(g115
g221
tp672
I0
s(g57
g12
tp673
I0
s(g36
g69
tp674
I0
s(g75
g79
tp675
I0
s(g131
g99
tp676
I0
s(g273
g97
tp677
I0
s(g172
g117
tp678
I0
s(g110
g8
tp679
I0
s(g67
g5
tp680
I0
s(g172
g159
tp681
I0
s(g188
g79
tp682
I0
s(g91
g19
tp683
I0
s(g17
g131
tp684
I0
s(g91
g74
tp685
I0
s(g79
g145
tp686
I0
s(g135
g127
tp687
I0
s(g71
g17
tp688
I0
s(g71
g86
tp689
I0
s(g41
g172
tp690
F0.073619631901840496
s(g43
g59
tp691
I0
s(g103
g67
tp692
I0
s(g135
g3
tp693
I0
s(g105
g3
tp694
I0
s(g35
g3
tp695
I0
s(g14
g30
tp696
I0
s(g11
g77
tp697
I0
s(g97
g17
tp698
I0
s(g172
g9
tp699
I0
s(g66
g12
tp700
I0
s(g17
g35
tp701
I0
s(g51
g123
tp702
I0
s(g273
g99
tp703
I0
s(g77
g33
tp704
I0
s(g30
g22
tp705
I0
s(g59
g6
tp706
I0
s(g2
g32
tp707
I0
s(g117
g147
tp708
I0
s(g145
g147
tp709
I0
s(g9
g77
tp710
I0
s(g51
g33
tp711
I0
s(g79
g8
tp712
I0
s(g19
g17
tp713
F0.3597560975609756
s(g15
g20
tp714
I0
s(g2
g87
tp715
I0
s(g36
g94
tp716
I0
s(g99
g127
tp717
I0
s(g191
g110
tp718
I0
s(g38
g127
tp719
I0
s(g32
g17
tp720
I0
s(g29
g12
tp721
I0
s(g17
g19
tp722
I0
s(g140
g26
tp723
I0
s(g6
g11
tp724
I0
s(g103
g131
tp725
I0
s(g33
g3
tp726
I0
s(g145
g145
tp727
I0
s(g97
g117
tp728
I0
s(g105
g97
tp729
I0
s(g43
g151
tp730
I0
s(g51
g66
tp731
I0
s(g26
g24
tp732
I0
s(g49
g91
tp733
I0
s(g79
g39
tp734
I0
s(g39
g273
tp735
I0
s(g51
g30
tp736
I0
s(g41
g14
tp737
I0
s(g94
g103
tp738
I0
s(g117
g36
tp739
I0
s(g8
g79
tp740
I0
s(g6
g15
tp741
I0
s(g11
g62
tp742
I0
s(g147
g47
tp743
I0
s(g39
g9
tp744
I0
s(g8
g81
tp745
I0
s(g32
g29
tp746
I0
s(g127
g71
tp747
I0
s(g55
g22
tp748
I0
s(g11
g221
tp749
I0
s(g115
g172
tp750
I0
s(g107
g27
tp751
I0
s(g147
g62
tp752
I0
s(g110
g39
tp753
I0
s(g8
g36
tp754
I0
s(g107
g57
tp755
F0.20805369127516779
s(g69
g3
tp756
I0
s(g24
g8
tp757
I0
s(g221
g27
tp758
I0
s(g79
g51
tp759
I0
s(g66
g38
tp760
I0
s(g131
g221
tp761
I0
s(g14
g172
tp762
I0
s(g83
g45
tp763
I0
s(g53
g20
tp764
I0
s(g22
g9
tp765
I0
s(g75
g99
tp766
I0
s(g151
g32
tp767
I0
s(g17
g38
tp768
I0
s(g91
g15
tp769
I0
s(g66
g41
tp770
I0
s(g9
g94
tp771
I0
s(g2
g27
tp772
I0
s(g151
g127
tp773
I0
s(g83
g127
tp774
I0
s(g6
g159
tp775
F0.093457943925233641
s(g2
g19
tp776
I0
s(g45
g115
tp777
I0
s(g47
g145
tp778
I0
s(g11
g2
tp779
I0
s(g53
g26
tp780
F0.078431372549019607
s(g191
g2
tp781
I0
s(g188
g81
tp782
I0
s(g35
g117
tp783
I0
s(g86
g107
tp784
I0
s(g81
g113
tp785
I0
s(g24
g131
tp786
F0.29699248120300753
s(g62
g105
tp787
I0
s(g6
g39
tp788
I0
s(g49
g188
tp789
I0
s(g127
g147
tp790
I0
s(g62
g41
tp791
I0
s(g49
g3
tp792
I0
s(g273
g69
tp793
I0
s(g135
g110
tp794
I0
s(g27
g69
tp795
I0
s(g79
g30
tp796
I0
s(g43
g103
tp797
I0
s(g55
g113
tp798
I0
s(g2
g151
tp799
I0
s(g57
g93
tp800
I0
s(g57
g117
tp801
I0
s(g14
g62
tp802
I0
s(g87
g221
tp803
I0
s(g69
g94
tp804
I0
s(g11
g74
tp805
I0
s(g131
g140
tp806
I0
s(g147
g15
tp807
I0
s(g69
g91
tp808
I0
s(g35
g67
tp809
I0
s(g81
g172
tp810
F0.62931034482758619
s(g97
g62
tp811
I0
s(g24
g49
tp812
I0
s(g188
g107
tp813
I0
s(g11
g30
tp814
I0
s(g55
g36
tp815
F0.17808219178082191
s(g32
g123
tp816
I0
s(g86
g172
tp817
I0
s(g17
g74
tp818
I0
s(g38
g14
tp819
I0
s(g94
g99
tp820
I0
s(g8
g3
tp821
I0
s(g115
g36
tp822
I0
s(g14
g19
tp823
I0
s(g30
g55
tp824
I0
s(g91
g47
tp825
I0
s(g97
g47
tp826
I0
s(g35
g24
tp827
I0
s(g9
g107
tp828
I0
s(g55
g172
tp829
I0
s(g49
g22
tp830
I0
s(g172
g74
tp831
I0
s(g41
g191
tp832
I0
s(g33
g43
tp833
I0
s(g6
g12
tp834
I0
s(g140
g38
tp835
I0
s(g9
g159
tp836
I0
s(g115
g123
tp837
I0
s(g5
g36
tp838
I0
s(g115
g39
tp839
I0
s(g131
g20
tp840
I0
s(g99
g71
tp841
I0
s(g47
g151
tp842
I0
s(g115
g71
tp843
I0
s(g127
g51
tp844
I0
s(g83
g27
tp845
I0
s(g35
g47
tp846
I0
s(g107
g74
tp847
I0
s(g36
g14
tp848
I0
s(g145
g83
tp849
I0
s(g159
g188
tp850
I0
s(g127
g79
tp851
I0
s(g86
g113
tp852
I0
s(g9
g59
tp853
I0
s(g62
g39
tp854
I0
s(g11
g145
tp855
I0
s(g35
g14
tp856
I0
s(g12
g93
tp857
I0
s(g22
g24
tp858
I0
s(g93
g53
tp859
I0
s(g107
g9
tp860
I0
s(g75
g91
tp861
I0
s(g6
g41
tp862
I0
s(g69
g77
tp863
I0
s(g33
g86
tp864
I0
s(g99
g12
tp865
I0
s(g103
g11
tp866
I0
s(g75
g94
tp867
I0
s(g55
g140
tp868
I0
s(g75
g53
tp869
I0
s(g147
g97
tp870
I0
s(g45
g113
tp871
I0
s(g66
g29
tp872
I0
s(g97
g29
tp873
I0
s(g91
g57
tp874
I0
s(g140
g113
tp875
I0
s(g49
g29
tp876
I0
s(g115
g2
tp877
I0
s(g91
g29
tp878
I0
s(g67
g62
tp879
I0
s(g86
g27
tp880
I0
s(g115
g159
tp881
I0
s(g135
g91
tp882
I0
s(g47
g147
tp883
I0
s(g62
g3
tp884
I0
s(g172
g221
tp885
I0
s(g67
g9
tp886
I0
s(g75
g43
tp887
I0
s(g117
g273
tp888
I0
s(g62
g51
tp889
I0
s(g188
g127
tp890
I0
s(g94
g43
tp891
I0
s(g191
g87
tp892
I0
s(g47
g127
tp893
I0
s(g115
g26
tp894
I0
s(g67
g77
tp895
I0
s(g12
g113
tp896
I0
s(g27
g45
tp897
F0.38095238095238093
s(g162
g117
tp898
I0
s(g71
g151
tp899
I0
s(g151
g145
tp900
I0
s(g273
g55
tp901
I0
s(g117
g110
tp902
I0
s(g105
g57
tp903
I0
s(g97
g172
tp904
I0
s(g66
g11
tp905
I0
s(g15
g75
tp906
I0
s(g30
g36
tp907
I0
s(g93
g45
tp908
I0
s(g94
g49
tp909
I0
s(g36
g131
tp910
I0
s(g38
g59
tp911
I0
s(g14
g162
tp912
I0
s(g135
g83
tp913
I0
s(g147
g22
tp914
I0
s(g5
g77
tp915
I0
s(g17
g57
tp916
I0
s(g24
g47
tp917
I0
s(g110
g147
tp918
I0
s(g53
g19
tp919
I0
s(g93
g79
tp920
I0
s(g45
g107
tp921
I0
s(g91
g27
tp922
I0
s(g26
g29
tp923
I0
s(g30
g71
tp924
I0
s(g79
g27
tp925
I0
s(g74
g66
tp926
I0
s(g110
g12
tp927
I0
s(g115
g86
tp928
I0
s(g188
g12
tp929
F0.49431818181818182
s(g33
g41
tp930
I0
s(g2
g172
tp931
I0
s(g20
g75
tp932
I0
s(g159
g115
tp933
I0
s(g273
g67
tp934
I0
s(g53
g75
tp935
I0
s(g41
g22
tp936
I0
s(g45
g22
tp937
I0
s(g26
g53
tp938
I0
s(g45
g67
tp939
I0
s(g127
g93
tp940
I0
s(g39
g81
tp941
I0
s(g67
g41
tp942
I0
s(g32
g86
tp943
I0
s(g39
g77
tp944
I0
s(g59
g113
tp945
I0
s(g135
g99
tp946
I0
s(g43
g17
tp947
I0
s(g45
g273
tp948
I0
s(g59
g135
tp949
I0
s(g22
g97
tp950
I0
s(g75
g57
tp951
I0
s(g127
g41
tp952
I0
s(g99
g123
tp953
I0
s(g15
g2
tp954
I0
s(g39
g93
tp955
I0
s(g29
g22
tp956
I0
s(g19
g30
tp957
I0
s(g8
g27
tp958
I0
s(g107
g5
tp959
I0
s(g110
g151
tp960
I0
s(g99
g145
tp961
I0
s(g188
g115
tp962
I0
s(g59
g11
tp963
I0
s(g131
g22
tp964
I0
s(g8
g62
tp965
I0
s(g188
g43
tp966
I0
s(g135
g188
tp967
I0
s(g9
g79
tp968
I0
s(g159
g3
tp969
I0
s(g20
g15
tp970
I0
s(g273
g131
tp971
I0
s(g145
g39
tp972
I0
s(g107
g35
tp973
I0
s(g59
g172
tp974
I0
s(g51
g39
tp975
I0
s(g45
g35
tp976
I0
s(g145
g97
tp977
I0
s(g113
g91
tp978
I0
s(g69
g43
tp979
I0
s(g162
g188
tp980
I0
s(g115
g127
tp981
I0
s(g51
g105
tp982
I0
s(g188
g15
tp983
I0
s(g15
g71
tp984
I0
s(g91
g2
tp985
I0
s(g39
g30
tp986
I0
s(g99
g36
tp987
I0
s(g49
g38
tp988
I0
s(g55
g15
tp989
I0
s(g86
g162
tp990
I0
s(g33
g32
tp991
I0
s(g99
g159
tp992
I0
s(g47
g62
tp993
I0
s(g15
g6
tp994
I0
s(g12
g57
tp995
I0
s(g8
g11
tp996
I0
s(g5
g107
tp997
I0
s(g15
g35
tp998
I0
s(g191
g14
tp999
I0
s(g110
g36
tp1000
I0
s(g140
g140
tp1001
F0.60849056603773588
s(g9
g12
tp1002
I0
s(g273
g49
tp1003
I0
s(g110
g43
tp1004
I0
s(g86
g105
tp1005
I0
s(g69
g26
tp1006
I0
s(g3
g273
tp1007
I0
s(g93
g191
tp1008
I0
s(g67
g140
tp1009
I0
s(g17
g45
tp1010
I0
s(g32
g57
tp1011
I0
s(g87
g74
tp1012
I0
s(g81
g9
tp1013
F0.28448275862068967
s(g131
g57
tp1014
I0
s(g66
g94
tp1015
I0
s(g45
g32
tp1016
I0
s(g105
g105
tp1017
I0
s(g51
g6
tp1018
I0
s(g19
g131
tp1019
I0
s(g41
g27
tp1020
I0
s(g8
g273
tp1021
I0
s(g97
g135
tp1022
I0
s(g147
g14
tp1023
I0
s(g41
g19
tp1024
I0
s(g3
g99
tp1025
I0
s(g151
g30
tp1026
I0
s(g81
g273
tp1027
I0
s(g105
g117
tp1028
I0
s(g66
g91
tp1029
I0
s(g162
g57
tp1030
I0
s(g145
g81
tp1031
I0
s(g97
g77
tp1032
I0
s(g99
g151
tp1033
I0
s(g27
g87
tp1034
I0
s(g127
g6
tp1035
I0
s(g99
g30
tp1036
I0
s(g41
g47
tp1037
I0
s(g9
g127
tp1038
I0
s(g123
g22
tp1039
I0
s(g66
g75
tp1040
I0
s(g67
g159
tp1041
I0
s(g35
g2
tp1042
I0
s(g12
g24
tp1043
I0
s(g91
g75
tp1044
I0
s(g86
g79
tp1045
I0
s(g74
g3
tp1046
I0
s(g97
g2
tp1047
I0
s(g273
g51
tp1048
I0
s(g81
g32
tp1049
I0
s(g145
g123
tp1050
I0
s(g5
g127
tp1051
I0
s(g30
g145
tp1052
I0
s(g49
g15
tp1053
I0
s(g159
g41
tp1054
I0
s(g19
g99
tp1055
I0
s(g159
g67
tp1056
I0
s(g33
g191
tp1057
I0
s(g33
g33
tp1058
F0.48701298701298701
s(g49
g30
tp1059
I0
s(g87
g27
tp1060
I0
s(g12
g105
tp1061
I0
s(g69
g123
tp1062
I0
s(g115
g38
tp1063
I0
s(g32
g27
tp1064
I0
s(g38
g105
tp1065
I0
s(g14
g47
tp1066
I0
s(g3
g62
tp1067
I0
s(g147
g135
tp1068
I0
s(g172
g22
tp1069
I0
s(g127
g75
tp1070
I0
s(g47
g2
tp1071
I0
s(g172
g12
tp1072
I0
s(g172
g75
tp1073
I0
s(g38
g45
tp1074
I0
s(g135
g49
tp1075
I0
s(g59
g12
tp1076
I0
s(g74
g53
tp1077
I0
s(g94
g30
tp1078
I0
s(g123
g103
tp1079
I0
s(g8
g83
tp1080
I0
s(g94
g35
tp1081
I0
s(g20
g105
tp1082
I0
s(g29
g24
tp1083
I0
s(g147
g151
tp1084
I0
s(g105
g273
tp1085
I0
s(g67
g20
tp1086
I0
s(g99
g147
tp1087
I0
s(g62
g15
tp1088
I0
s(g30
g135
tp1089
I0
s(g83
g151
tp1090
I0
s(g110
g103
tp1091
I0
s(g81
g105
tp1092
I0
s(g32
g83
tp1093
I0
s(g51
g11
tp1094
I0
s(g123
g35
tp1095
I0
s(g107
g11
tp1096
I0
s(g69
g38
tp1097
I0
s(g83
g57
tp1098
I0
s(g140
g172
tp1099
I0
s(g24
g103
tp1100
I0
s(g24
g127
tp1101
I0
s(g35
g97
tp1102
I0
s(g17
g79
tp1103
I0
s(g74
g162
tp1104
I0
s(g38
g74
tp1105
I0
s(g29
g105
tp1106
I0
s(g77
g5
tp1107
I0
s(g24
g15
tp1108
I0
s(g67
g11
tp1109
I0
s(g5
g5
tp1110
F0.70526315789473681
s(g3
g77
tp1111
I0
s(g93
g33
tp1112
I0
s(g191
g140
tp1113
F0.2247191011235955
s(g97
g273
tp1114
I0
s(g91
g103
tp1115
I0
s(g81
g191
tp1116
I0
s(g39
g45
tp1117
F0.13438735177865613
s(g117
g188
tp1118
I0
s(g59
g62
tp1119
I0
s(g74
g11
tp1120
I0
s(g123
g24
tp1121
I0
s(g69
g57
tp1122
I0
s(g6
g20
tp1123
I0
s(g97
g8
tp1124
I0
s(g12
g9
tp1125
I0
s(g105
g188
tp1126
I0
s(g30
g14
tp1127
I0
s(g47
g66
tp1128
I0
s(g30
g30
tp1129
F0.68518518518518523
s(g45
g74
tp1130
I0
s(g221
g191
tp1131
I0
s(g147
g99
tp1132
I0
s(g45
g6
tp1133
I0
s(g32
g3
tp1134
I0
s(g32
g94
tp1135
I0
s(g94
g79
tp1136
I0
s(g77
g97
tp1137
I0
s(g69
g11
tp1138
I0
s(g22
g39
tp1139
I0
s(g131
g9
tp1140
I0
s(g32
g43
tp1141
I0
s(g127
g30
tp1142
I0
s(g87
g127
tp1143
I0
s(g91
g188
tp1144
I0
s(g103
g115
tp1145
I0
s(g43
g41
tp1146
I0
s(g41
g117
tp1147
I0
s(g75
g83
tp1148
I0
s(g188
g135
tp1149
I0
s(g107
g99
tp1150
I0
s(g32
g5
tp1151
I0
s(g29
g62
tp1152
I0
s(g49
g135
tp1153
I0
s(g191
g39
tp1154
I0
s(g159
g14
tp1155
I0
s(g66
g145
tp1156
I0
s(g5
g221
tp1157
I0
s(g47
g123
tp1158
I0
s(g39
g12
tp1159
I0
s(g66
g107
tp1160
I0
s(g32
g53
tp1161
I0
s(g41
g135
tp1162
I0
s(g5
g115
tp1163
I0
s(g273
g71
tp1164
I0
s(g27
g14
tp1165
I0
s(g33
g117
tp1166
I0
s(g191
g67
tp1167
I0
s(g2
g6
tp1168
I0
s(g2
g39
tp1169
I0
s(g77
g83
tp1170
I0
s(g97
g105
tp1171
I0
s(g135
g38
tp1172
I0
s(g26
g8
tp1173
I0
s(g159
g51
tp1174
I0
s(g151
g135
tp1175
I0
s(g113
g94
tp1176
I0
s(g75
g33
tp1177
I0
s(g14
g135
tp1178
I0
s(g30
g39
tp1179
I0
s(g127
g33
tp1180
I0
s(g127
g107
tp1181
I0
s(g19
g75
tp1182
I0
s(g35
g115
tp1183
I0
s(g91
g38
tp1184
I0
s(g110
g2
tp1185
I0
s(g12
g62
tp1186
I0
s(g15
g93
tp1187
I0
s(g69
g117
tp1188
I0
s(g135
g57
tp1189
I0
s(g79
g93
tp1190
I0
s(g15
g59
tp1191
I0
s(g43
g221
tp1192
I0
s(g66
g159
tp1193
I0
s(g29
g188
tp1194
I0
s(g30
g273
tp1195
I0
s(g17
g75
tp1196
I0
s(g45
g12
tp1197
I0
s(g8
g26
tp1198
I0
s(g131
g117
tp1199
I0
s(g99
g22
tp1200
I0
s(g51
g273
tp1201
I0
s(g39
g39
tp1202
F0.66007905138339917
s(g221
g69
tp1203
I0
s(g53
g66
tp1204
I0
s(g33
g15
tp1205
I0
s(g41
g3
tp1206
I0
s(g159
g11
tp1207
I0
s(g162
g273
tp1208
I0
s(g47
g172
tp1209
I0
s(g45
g69
tp1210
I0
s(g147
g53
tp1211
I0
s(g62
g115
tp1212
I0
s(g22
g2
tp1213
F0.45402298850574713
s(g127
g43
tp1214
I0
s(g43
g66
tp1215
I0
s(g69
g113
tp1216
I0
s(g162
g8
tp1217
I0
s(g43
g30
tp1218
I0
s(g83
g14
tp1219
I0
s(g53
g105
tp1220
I0
s(g135
g74
tp1221
I0
s(g53
g41
tp1222
I0
s(g22
g79
tp1223
I0
s(g62
g117
tp1224
I0
s(g66
g69
tp1225
I0
s(g38
g131
tp1226
I0
s(g91
g83
tp1227
I0
s(g97
g38
tp1228
I0
s(g33
g5
tp1229
I0
s(g27
g191
tp1230
I0
s(g41
g53
tp1231
I0
s(g74
g5
tp1232
I0
s(g127
g32
tp1233
I0
s(g24
g51
tp1234
I0
s(g14
g86
tp1235
I0
s(g99
g97
tp1236
I0
s(g47
g43
tp1237
I0
s(g32
g103
tp1238
I0
s(g66
g45
tp1239
I0
s(g62
g103
tp1240
I0
s(g41
g71
tp1241
I0
s(g33
g35
tp1242
I0
s(g83
g91
tp1243
I0
s(g41
g113
tp1244
I0
s(g221
g115
tp1245
I0
s(g86
g17
tp1246
I0
s(g36
g20
tp1247
F0.15789473684210525
s(g41
g43
tp1248
I0
s(g71
g36
tp1249
I0
s(g20
g188
tp1250
I0
s(g39
g8
tp1251
I0
s(g53
g117
tp1252
I0
s(g45
g135
tp1253
I0
s(g19
g12
tp1254
I0
s(g99
g39
tp1255
I0
s(g131
g19
tp1256
I0
s(g15
g123
tp1257
I0
s(g36
g127
tp1258
I0
s(g145
g71
tp1259
I0
s(g117
g3
tp1260
I0
s(g51
g94
tp1261
I0
s(g87
g117
tp1262
I0
s(g113
g81
tp1263
I0
s(g191
g62
tp1264
I0
s(g188
g191
tp1265
I0
s(g147
g87
tp1266
I0
s(g22
g81
tp1267
I0
s(g135
g5
tp1268
I0
s(g145
g67
tp1269
I0
s(g19
g66
tp1270
I0
s(g75
g162
tp1271
I0
s(g159
g87
tp1272
I0
s(g91
g43
tp1273
I0
s(g53
g9
tp1274
I0
s(g81
g91
tp1275
I0
s(g49
g67
tp1276
I0
s(g81
g103
tp1277
I0
s(g5
g29
tp1278
I0
s(g83
g83
tp1279
F0.63829787234042556
s(g2
g51
tp1280
I0
s(g15
g74
tp1281
I0
s(g93
g24
tp1282
I0
s(g273
g110
tp1283
I0
s(g77
g115
tp1284
I0
s(g14
g159
tp1285
I0
s(g273
g5
tp1286
I0
s(g39
g107
tp1287
I0
s(g2
g47
tp1288
I0
s(g107
g79
tp1289
I0
s(g45
g5
tp1290
I0
s(g59
g69
tp1291
I0
s(g71
g66
tp1292
I0
s(g188
g17
tp1293
I0
s(g62
g14
tp1294
I0
s(g117
g8
tp1295
I0
s(g41
g45
tp1296
I0
s(g115
g75
tp1297
I0
s(g107
g51
tp1298
I0
s(g71
g140
tp1299
I0
s(g14
g97
tp1300
I0
s(g20
g19
tp1301
I0
s(g38
g77
tp1302
I0
s(g53
g6
tp1303
I0
s(g22
g135
tp1304
I0
s(g145
g35
tp1305
I0
s(g69
g115
tp1306
I0
s(g135
g53
tp1307
I0
s(g99
g188
tp1308
I0
s(g94
g87
tp1309
I0
s(g115
g55
tp1310
I0
s(g75
g87
tp1311
F0.18181818181818182
s(g62
g79
tp1312
I0
s(g55
g45
tp1313
I0
s(g2
g91
tp1314
I0
s(g39
g36
tp1315
I0
s(g14
g71
tp1316
I0
s(g151
g8
tp1317
I0
s(g19
g115
tp1318
I0
s(g135
g43
tp1319
I0
s(g47
g32
tp1320
I0
s(g33
g113
tp1321
I0
s(g172
g24
tp1322
I0
s(g33
g71
tp1323
I0
s(g12
g140
tp1324
I0
s(g115
g91
tp1325
I0
s(g123
g26
tp1326
I0
s(g113
g103
tp1327
I0
s(g91
g110
tp1328
I0
s(g11
g71
tp1329
I0
s(g12
g2
tp1330
I0
s(g145
g32
tp1331
I0
s(g172
g20
tp1332
I0
s(g172
g41
tp1333
I0
s(g135
g131
tp1334
I0
s(g17
g99
tp1335
I0
s(g20
g131
tp1336
I0
s(g51
g27
tp1337
I0
s(g2
g131
tp1338
I0
s(g59
g79
tp1339
I0
s(g33
g53
tp1340
I0
s(g140
g39
tp1341
I0
s(g24
g71
tp1342
I0
s(g94
g81
tp1343
I0
s(g273
g22
tp1344
I0
s(g140
g49
tp1345
I0
s(g87
g47
tp1346
I0
s(g33
g27
tp1347
I0
s(g38
g24
tp1348
I0
s(g221
g6
tp1349
I0
s(g117
g94
tp1350
I0
s(g29
g26
tp1351
I0
s(g79
g71
tp1352
I0
s(g188
g9
tp1353
I0
s(g162
g140
tp1354
I0
s(g45
g55
tp1355
I0
s(g57
g3
tp1356
I0
s(g145
g51
tp1357
I0
s(g20
g145
tp1358
I0
s(g26
g20
tp1359
I0
s(g159
g2
tp1360
I0
s(g151
g74
tp1361
I0
s(g27
g83
tp1362
I0
s(g74
g83
tp1363
I0
s(g110
g26
tp1364
I0
s(g3
g87
tp1365
I0
s(g59
g140
tp1366
I0
s(g32
g66
tp1367
I0
s(g15
g19
tp1368
I0
s(g22
g140
tp1369
I0
s(g12
g127
tp1370
I0
s(g66
g39
tp1371
I0
s(g15
g24
tp1372
I0
s(g159
g105
tp1373
I0
s(g79
g77
tp1374
I0
s(g47
g131
tp1375
I0
s(g91
g87
tp1376
I0
s(g30
g188
tp1377
I0
s(g159
g45
tp1378
I0
s(g5
g35
tp1379
I0
s(g26
g14
tp1380
I0
s(g87
g162
tp1381
I0
s(g74
g145
tp1382
I0
s(g79
g2
tp1383
I0
s(g59
g8
tp1384
I0
s(g9
g145
tp1385
I0
s(g94
g221
tp1386
I0
s(g273
g11
tp1387
I0
s(g93
g172
tp1388
I0
s(g41
g6
tp1389
I0
s(g27
g62
tp1390
I0
s(g39
g74
tp1391
I0
s(g38
g107
tp1392
F0.089655172413793102
s(g24
g83
tp1393
I0
s(g24
g30
tp1394
I0
s(g38
g2
tp1395
I0
s(g30
g87
tp1396
I0
s(g14
g105
tp1397
I0
s(g43
g75
tp1398
I0
s(g39
g151
tp1399
I0
s(g39
g43
tp1400
I0
s(g67
g38
tp1401
I0
s(g97
g49
tp1402
I0
s(g151
g20
tp1403
I0
s(g123
g127
tp1404
I0
s(g47
g87
tp1405
I0
s(g45
g66
tp1406
I0
s(g36
g27
tp1407
I0
s(g99
g9
tp1408
I0
s(g9
g51
tp1409
I0
s(g53
g33
tp1410
I0
s(g19
g221
tp1411
I0
s(g81
g123
tp1412
I0
s(g69
g29
tp1413
I0
s(g105
g62
tp1414
I0
s(g81
g6
tp1415
I0
s(g74
g159
tp1416
I0
s(g123
g45
tp1417
I0
s(g172
g19
tp1418
I0
s(g94
g75
tp1419
I0
s(g188
g24
tp1420
I0
s(g11
g97
tp1421
I0
s(g5
g67
tp1422
I0
s(g110
g9
tp1423
I0
s(g6
g147
tp1424
I0
s(g59
g75
tp1425
I0
s(g83
g87
tp1426
I0
s(g87
g38
tp1427
I0
s(g53
g27
tp1428
I0
s(g55
g77
tp1429
F0.64383561643835618
s(g117
g38
tp1430
I0
s(g17
g117
tp1431
I0
s(g29
g15
tp1432
I0
s(g188
g53
tp1433
I0
s(g94
g19
tp1434
I0
s(g39
g11
tp1435
I0
s(g147
g20
tp1436
I0
s(g86
g131
tp1437
I0
s(g12
g12
tp1438
F0.74336283185840712
s(g273
g77
tp1439
I0
s(g5
g12
tp1440
I0
s(g36
g107
tp1441
I0
s(g36
g151
tp1442
I0
s(g47
g71
tp1443
I0
s(g53
g77
tp1444
I0
s(g36
g11
tp1445
I0
s(g77
g221
tp1446
I0
s(g221
g221
tp1447
F0.57526881720430112
s(g105
g53
tp1448
I0
s(g32
g110
tp1449
I0
s(g77
g87
tp1450
I0
s(g20
g20
tp1451
F0.12096774193548387
s(g172
g131
tp1452
I0
s(g43
g140
tp1453
I0
s(g2
g53
tp1454
I0
s(g191
g103
tp1455
I0
s(g86
g38
tp1456
I0
s(g103
g39
tp1457
I0
s(g47
g20
tp1458
I0
s(g53
g140
tp1459
I0
s(g81
g147
tp1460
I0
s(g17
g145
tp1461
I0
s(g66
g221
tp1462
I0
s(g127
g135
tp1463
I0
s(g97
g91
tp1464
I0
s(g2
g43
tp1465
I0
s(g191
g59
tp1466
I0
s(g9
g123
tp1467
F0.3079710144927536
s(g36
g273
tp1468
I0
s(g14
g221
tp1469
I0
s(g39
g117
tp1470
I0
s(g43
g6
tp1471
I0
s(g79
g35
tp1472
I0
s(g131
g33
tp1473
I0
s(g75
g8
tp1474
I0
s(g99
g67
tp1475
I0
s(g94
g39
tp1476
I0
s(g43
g3
tp1477
I0
s(g273
g273
tp1478
F0.75155279503105588
s(g83
g11
tp1479
I0
s(g83
g38
tp1480
I0
s(g103
g2
tp1481
I0
s(g45
g29
tp1482
I0
s(g86
g49
tp1483
I0
s(g103
g107
tp1484
I0
s(g71
g273
tp1485
I0
s(g99
g32
tp1486
I0
s(g51
g69
tp1487
I0
s(g123
g86
tp1488
I0
s(g17
g5
tp1489
I0
s(g117
g99
tp1490
I0
s(g273
g8
tp1491
I0
s(g273
g151
tp1492
I0
s(g79
g24
tp1493
I0
s(g131
g115
tp1494
I0
s(g62
g87
tp1495
I0
s(g75
g71
tp1496
I0
s(g103
g117
tp1497
I0
s(g41
g51
tp1498
I0
s(g55
g32
tp1499
I0
s(g113
g35
tp1500
I0
s(g22
g188
tp1501
I0
s(g79
g19
tp1502
I0
s(g43
g36
tp1503
I0
s(g81
g17
tp1504
I0
s(g22
g35
tp1505
I0
s(g45
g62
tp1506
I0
s(g81
g71
tp1507
I0
s(g32
g105
tp1508
I0
s(g74
g55
tp1509
I0
s(g87
g115
tp1510
I0
s(g117
g86
tp1511
I0
s(g55
g115
tp1512
I0
s(g188
g66
tp1513
I0
s(g75
g62
tp1514
I0
s(g83
g55
tp1515
I0
s(g159
g131
tp1516
I0
s(g45
g36
tp1517
I0
s(g97
g24
tp1518
I0
s(g19
g51
tp1519
I0
s(g69
g45
tp1520
I0
s(g162
g62
tp1521
I0
s(g140
g19
tp1522
I0
s(g110
g188
tp1523
I0
s(g117
g123
tp1524
I0
s(g32
g51
tp1525
I0
s(g11
g36
tp1526
I0
s(g135
g62
tp1527
I0
s(g47
g77
tp1528
I0
s(g83
g162
tp1529
F0.12340425531914893
s(g77
g15
tp1530
I0
s(g22
g32
tp1531
I0
s(g24
g81
tp1532
I0
s(g188
g45
tp1533
I0
s(g71
g105
tp1534
I0
s(g39
g5
tp1535
I0
s(g77
g39
tp1536
I0
s(g39
g71
tp1537
I0
s(g19
g97
tp1538
I0
s(g273
g74
tp1539
F0.071428571428571425
s(g79
g38
tp1540
I0
s(g20
g32
tp1541
I0
s(g115
g83
tp1542
I0
s(g74
g94
tp1543
I0
s(g8
g94
tp1544
I0
s(g30
g8
tp1545
I0
s(g17
g83
tp1546
I0
s(g55
g191
tp1547
I0
s(g38
g188
tp1548
I0
s(g32
g97
tp1549
I0
s(g29
g49
tp1550
I0
s(g27
g3
tp1551
I0
s(g36
g77
tp1552
I0
s(g5
g14
tp1553
I0
s(g3
g135
tp1554
I0
s(g51
g81
tp1555
I0
s(g113
g24
tp1556
I0
s(g162
g53
tp1557
I0
s(g30
g67
tp1558
I0
s(g105
g17
tp1559
I0
s(g17
g110
tp1560
I0
s(g110
g273
tp1561
I0
s(g94
g86
tp1562
F0.3968253968253968
s(g69
g39
tp1563
I0
s(g30
g32
tp1564
I0
s(g8
g30
tp1565
I0
s(g77
g35
tp1566
I0
s(g5
g113
tp1567
I0
s(g17
g33
tp1568
I0
s(g19
g29
tp1569
F0.17073170731707318
s(g86
g45
tp1570
I0
s(g24
g97
tp1571
I0
s(g87
g22
tp1572
I0
s(g30
g159
tp1573
I0
s(g6
g113
tp1574
I0
s(g77
g75
tp1575
I0
s(g131
g75
tp1576
I0
s(g19
g39
tp1577
I0
s(g127
g24
tp1578
F0.8666666666666667
s(g49
g221
tp1579
I0
s(g59
g35
tp1580
I0
s(g47
g135
tp1581
I0
s(g6
g145
tp1582
I0
s(g30
g107
tp1583
I0
s(g30
g91
tp1584
I0
s(g39
g147
tp1585
I0
s(g26
g2
tp1586
I0
s(g47
g26
tp1587
I0
s(g93
g115
tp1588
I0
s(g103
g3
tp1589
F0.17647058823529413
s(g75
g117
tp1590
I0
s(g47
g159
tp1591
I0
s(g35
g105
tp1592
I0
s(g45
g41
tp1593
I0
s(g191
g30
tp1594
I0
s(g83
g140
tp1595
I0
s(g55
g151
tp1596
I0
s(g38
g93
tp1597
I0
s(g110
g97
tp1598
I0
s(g27
g115
tp1599
I0
s(g86
g30
tp1600
I0
s(g117
g51
tp1601
I0
s(g51
g57
tp1602
I0
s(g20
g97
tp1603
I0
s(g41
g41
tp1604
F0.4785276073619632
s(g221
g59
tp1605
I0
s(g43
g81
tp1606
I0
s(g131
g94
tp1607
I0
s(g83
g94
tp1608
I0
s(g26
g188
tp1609
I0
s(g127
g131
tp1610
I0
s(g113
g27
tp1611
I0
s(g26
g12
tp1612
I0
s(g12
g162
tp1613
I0
s(g30
g151
tp1614
I0
s(g93
g3
tp1615
I0
s(g131
g191
tp1616
I0
s(g32
g191
tp1617
I0
s(g39
g162
tp1618
I0
s(g79
g20
tp1619
I0
s(g49
g35
tp1620
I0
s(g8
g159
tp1621
F0.47368421052631576
s(g221
g97
tp1622
I0
s(g41
g103
tp1623
I0
s(g74
g26
tp1624
I0
s(g62
g45
tp1625
I0
s(g47
g14
tp1626
I0
s(g8
g162
tp1627
I0
s(g69
g83
tp1628
I0
s(g19
g135
tp1629
I0
s(g107
g19
tp1630
I0
s(g51
g47
tp1631
I0
s(g151
g71
tp1632
I0
s(g53
g115
tp1633
I0
s(g27
g113
tp1634
I0
s(g172
g36
tp1635
I0
s(g11
g81
tp1636
I0
s(g5
g81
tp1637
I0
s(g93
g67
tp1638
F0.34337349397590361
s(g113
g51
tp1639
I0
s(g110
g22
tp1640
I0
s(g29
g27
tp1641
I0
s(g145
g47
tp1642
I0
s(g20
g6
tp1643
I0
s(g69
g27
tp1644
I0
s(g35
g45
tp1645
I0
s(g127
g62
tp1646
I0
s(g99
g2
tp1647
I0
s(g110
g110
tp1648
F0.53631284916201116
s(g97
g110
tp1649
I0
s(g30
g147
tp1650
I0
s(g191
g105
tp1651
I0
s(g22
g99
tp1652
I0
s(g32
g172
tp1653
I0
s(g74
g33
tp1654
I0
s(g151
g2
tp1655
I0
s(g51
g32
tp1656
I0
s(g71
g110
tp1657
I0
s(g135
g69
tp1658
I0
s(g59
g26
tp1659
I0
s(g221
g172
tp1660
I0
s(g36
g145
tp1661
I0
s(g107
g131
tp1662
I0
s(g123
g43
tp1663
I0
s(g172
g30
tp1664
I0
s(g15
g103
tp1665
I0
s(g8
g74
tp1666
I0
s(g107
g12
tp1667
I0
s(g26
g94
tp1668
I0
s(g14
g127
tp1669
I0
s(g94
g41
tp1670
I0
s(g172
g66
tp1671
F0.29761904761904762
s(g66
g5
tp1672
I0
s(g38
g3
tp1673
F0.48275862068965519
s(g74
g19
tp1674
I0
s(g15
g30
tp1675
I0
s(g221
g66
tp1676
I0
s(g5
g97
tp1677
I0
s(g147
g57
tp1678
I0
s(g127
g9
tp1679
I0
s(g81
g127
tp1680
I0
s(g273
g39
tp1681
I0
s(g87
g140
tp1682
I0
s(g33
g67
tp1683
I0
s(g55
g66
tp1684
I0
s(g162
g26
tp1685
I0
s(g35
g53
tp1686
I0
s(g87
g91
tp1687
I0
s(g135
g41
tp1688
I0
s(g127
g77
tp1689
I0
s(g62
g30
tp1690
I0
s(g66
g172
tp1691
I0
s(g9
g67
tp1692
I0
s(g127
g74
tp1693
I0
s(g103
g24
tp1694
I0
s(g20
g8
tp1695
I0
s(g51
g74
tp1696
I0
s(g12
g20
tp1697
I0
s(g32
g113
tp1698
I0
s(g81
g79
tp1699
I0
s(g30
g162
tp1700
I0
s(g117
g117
tp1701
F0.64000000000000001
s(g140
g94
tp1702
I0
s(g74
g35
tp1703
I0
s(g17
g27
tp1704
I0
s(g221
g19
tp1705
I0
s(g103
g105
tp1706
I0
s(g75
g47
tp1707
I0
s(g151
g75
tp1708
I0
s(g123
g151
tp1709
I0
s(g47
g53
tp1710
F0.4885057471264368
s(g29
g32
tp1711
I0
s(g3
g71
tp1712
I0
s(g20
g12
tp1713
I0
s(g103
g188
tp1714
I0
s(g147
g162
tp1715
I0
s(g11
g131
tp1716
I0
s(g30
g38
tp1717
I0
s(g87
g14
tp1718
I0
s(g147
g24
tp1719
I0
s(g20
g2
tp1720
I0
s(g67
g93
tp1721
I0
s(g30
g53
tp1722
I0
s(g135
g79
tp1723
I0
s(g140
g5
tp1724
I0
s(g151
g159
tp1725
I0
s(g19
g94
tp1726
I0
s(g17
g97
tp1727
I0
s(g53
g103
tp1728
F0.18954248366013071
s(g66
g113
tp1729
I0
s(g97
g113
tp1730
I0
s(g93
g110
tp1731
F0.15662650602409639
s(g30
g49
tp1732
I0
s(g29
g5
tp1733
I0
s(g151
g19
tp1734
I0
s(g110
g140
tp1735
I0
s(g87
g59
tp1736
I0
s(g113
g11
tp1737
I0
s(g12
g159
tp1738
I0
s(g27
g55
tp1739
I0
s(g99
g273
tp1740
I0
s(g145
g15
tp1741
I0
s(g30
g43
tp1742
I0
s(g86
g14
tp1743
I0
s(g188
g105
tp1744
I0
s(g45
g26
tp1745
I0
s(g11
g49
tp1746
I0
s(g69
g140
tp1747
I0
s(g115
g59
tp1748
I0
s(g99
g103
tp1749
I0
s(g59
g32
tp1750
I0
s(g38
g67
tp1751
I0
s(g81
g35
tp1752
I0
s(g53
g191
tp1753
I0
s(g27
g86
tp1754
I0
s(g74
g79
tp1755
I0
s(g151
g15
tp1756
I0
s(g162
g59
tp1757
I0
s(g86
g6
tp1758
F0.15979381443298968
s(g131
g53
tp1759
I0
s(g188
g162
tp1760
I0
s(g93
g11
tp1761
I0
s(g36
g221
tp1762
I0
s(g97
g3
tp1763
I0
s(g33
g93
tp1764
I0
s(g43
g49
tp1765
I0
s(g97
g127
tp1766
I0
s(g53
g17
tp1767
I0
s(g151
g11
tp1768
I0
s(g191
g93
tp1769
I0
s(g105
g86
tp1770
I0
s(g81
g19
tp1771
I0
s(g45
g59
tp1772
I0
s(g41
g147
tp1773
I0
s(g91
g14
tp1774
I0
s(g11
g51
tp1775
I0
s(g71
g135
tp1776
I0
s(g59
g55
tp1777
F0.27325581395348836
s(g15
g8
tp1778
I0
s(g2
g57
tp1779
I0
s(g113
g57
tp1780
I0
s(g113
g36
tp1781
I0
s(g159
g74
tp1782
I0
s(g273
g123
tp1783
I0
s(g30
g86
tp1784
I0
s(g147
g94
tp1785
I0
s(g6
g24
tp1786
F0.1542056074766355
s(g113
g5
tp1787
I0
s(g81
g22
tp1788
I0
s(g57
g94
tp1789
I0
s(g103
g74
tp1790
I0
s(g39
g103
tp1791
I0
s(g87
g66
tp1792
I0
s(g22
g159
tp1793
I0
s(g127
g3
tp1794
I0
s(g59
g191
tp1795
I0
s(g105
g26
tp1796
I0
s(g26
g93
tp1797
I0
s(g22
g117
tp1798
I0
s(g172
g14
tp1799
I0
s(g27
g29
tp1800
I0
s(g57
g123
tp1801
I0
s(g26
g59
tp1802
I0
s(g41
g105
tp1803
I0
s(g145
g8
tp1804
I0
s(g273
g14
tp1805
I0
s(g191
g15
tp1806
I0
s(g191
g49
tp1807
I0
s(g14
g74
tp1808
F0.33108108108108109
s(g38
g33
tp1809
I0
s(g35
g107
tp1810
I0
s(g55
g26
tp1811
I0
s(g162
g191
tp1812
I0
s(g29
g103
tp1813
I0
s(g51
g49
tp1814
I0
s(g66
g2
tp1815
I0
s(g99
g43
tp1816
I0
s(g115
g115
tp1817
I0
s(g51
g35
tp1818
I0
s(g57
g35
tp1819
I0
s(g110
g159
tp1820
I0
s(g97
g6
tp1821
I0
s(g66
g79
tp1822
I0
s(g26
g99
tp1823
I0
s(g3
g162
tp1824
I0
s(g49
g45
tp1825
I0
s(g71
g113
tp1826
I0
s(g93
g123
tp1827
I0
s(g20
g87
tp1828
I0
s(g93
g19
tp1829
I0
s(g59
g147
tp1830
I0
s(g87
g57
tp1831
I0
s(g39
g29
tp1832
I0
s(g74
g49
tp1833
I0
s(g24
g145
tp1834
I0
s(g62
g107
tp1835
I0
s(g3
g32
tp1836
I0
s(g32
g107
tp1837
I0
s(g62
g2
tp1838
I0
s(g59
g221
tp1839
I0
s(g66
g49
tp1840
I0
s(g147
g12
tp1841
I0
s(g43
g19
tp1842
I0
s(g6
g273
tp1843
I0
s(g36
g123
tp1844
I0
s(g188
g86
tp1845
I0
s(g43
g24
tp1846
I0
s(g117
g32
tp1847
I0
s(g33
g172
tp1848
I0
s(g49
g69
tp1849
I0
s(g11
g172
tp1850
I0
s(g110
g145
tp1851
I0
s(g24
g36
tp1852
I0
s(g17
g91
tp1853
I0
s(g36
g55
tp1854
I0
s(g110
g123
tp1855
I0
s(g57
g26
tp1856
I0
s(g26
g105
tp1857
I0
s(g20
g67
tp1858
I0
s(g94
g47
tp1859
I0
s(g221
g17
tp1860
I0
s(g43
g35
tp1861
I0
s(g86
g74
tp1862
I0
s(g17
g172
tp1863
I0
s(g5
g151
tp1864
I0
s(g24
g62
tp1865
I0
s(g26
g79
tp1866
I0
s(g113
g151
tp1867
F0.27631578947368424
s(g188
g35
tp1868
I0
s(g59
g273
tp1869
I0
s(g162
g99
tp1870
I0
s(g2
g117
tp1871
I0
s(g71
g191
tp1872
I0
s(g19
g123
tp1873
I0
s(g35
g15
tp1874
I0
s(g188
g69
tp1875
I0
s(g75
g86
tp1876
I0
s(g49
g81
tp1877
I0
s(g3
g3
tp1878
F0.26530612244897961
s(g127
g145
tp1879
I0
s(g79
g191
tp1880
F0.37888198757763975
s(g77
g66
tp1881
I0
s(g86
g24
tp1882
I0
s(g105
g151
tp1883
I0
s(g159
g24
tp1884
F0.20000000000000001
s(g27
g221
tp1885
I0
s(g162
g86
tp1886
I0
s(g140
g6
tp1887
I0
s(g87
g32
tp1888
I0
s(g11
g6
tp1889
I0
s(g86
g62
tp1890
I0
s(g11
g35
tp1891
I0
s(g55
g127
tp1892
I0
s(g77
g9
tp1893
I0
s(g83
g74
tp1894
I0
s(g131
g105
tp1895
I0
s(g117
g74
tp1896
I0
s(g66
g81
tp1897
I0
s(g39
g55
tp1898
I0
s(g117
g55
tp1899
I0
s(g66
g77
tp1900
I0
s(g151
g147
tp1901
F0.52173913043478259
s(g159
g47
tp1902
I0
s(g145
g38
tp1903
I0
s(g51
g140
tp1904
I0
s(g162
g105
tp1905
I0
s(g41
g77
tp1906
I0
s(g123
g39
tp1907
I0
s(g47
g19
tp1908
I0
s(g81
g12
tp1909
I0
s(g22
g3
tp1910
I0
s(g77
g123
tp1911
I0
s(g57
g19
tp1912
I0
s(g9
g27
tp1913
I0
s(g19
g79
tp1914
I0
s(g22
g127
tp1915
I0
s(g55
g17
tp1916
I0
s(g9
g29
tp1917
I0
s(g115
g41
tp1918
I0
s(g53
g57
tp1919
I0
s(g9
g57
tp1920
I0
s(g59
g105
tp1921
I0
s(g32
g79
tp1922
I0
s(g105
g103
tp1923
I0
s(g151
g221
tp1924
I0
s(g105
g191
tp1925
I0
s(g131
g12
tp1926
I0
s(g15
g140
tp1927
F0.19344262295081968
s(g14
g99
tp1928
I0
s(g75
g9
tp1929
I0
s(g19
g9
tp1930
I0
s(g29
g9
tp1931
I0
s(g87
g105
tp1932
I0
s(g33
g97
tp1933
I0
s(g110
g17
tp1934
I0
s(g74
g17
tp1935
I0
s(g159
g30
tp1936
I0
s(g39
g2
tp1937
I0
s(g86
g33
tp1938
I0
s(g20
g127
tp1939
I0
s(g32
g127
tp1940
I0
s(g41
g145
tp1941
I0
s(g57
g103
tp1942
I0
s(g57
g127
tp1943
I0
s(g38
g87
tp1944
I0
s(g9
g162
tp1945
I0
s(g94
g91
tp1946
I0
s(g140
g15
tp1947
I0
s(g75
g38
tp1948
I0
s(g75
g105
tp1949
I0
s(g77
g94
tp1950
I0
s(g24
g188
tp1951
I0
s(g273
g188
tp1952
I0
s(g36
g9
tp1953
I0
s(g22
g147
tp1954
I0
s(g81
g45
tp1955
I0
s(g113
g162
tp1956
I0
s(g53
g24
tp1957
I0
s(g79
g123
tp1958
I0
s(g66
g123
tp1959
I0
s(g93
g30
tp1960
I0
s(g188
g140
tp1961
I0
s(g221
g38
tp1962
I0
s(g91
g107
tp1963
I0
s(g39
g49
tp1964
F0.14624505928853754
s(g19
g69
tp1965
I0
s(g53
g43
tp1966
I0
s(g33
g2
tp1967
I0
s(g2
g74
tp1968
I0
s(g110
g71
tp1969
I0
s(g3
g145
tp1970
I0
s(g140
g57
tp1971
I0
s(g191
g33
tp1972
I0
s(g41
g81
tp1973
F0.44785276073619634
s(g127
g87
tp1974
I0
s(g30
g110
tp1975
I0
s(g15
g36
tp1976
I0
s(g57
g15
tp1977
F0.47191011235955055
s(g47
g49
tp1978
I0
s(g87
g17
tp1979
I0
s(g97
g87
tp1980
I0
s(g39
g22
tp1981
I0
s(g191
g123
tp1982
I0
s(g39
g75
tp1983
I0
s(g117
g53
tp1984
I0
s(g105
g99
tp1985
I0
s(g145
g103
tp1986
F1
s(g57
g79
tp1987
I0
s(g172
g67
tp1988
I0
s(g99
g5
tp1989
I0
s(g30
g33
tp1990
I0
s(g11
g103
tp1991
I0
s(g11
g66
tp1992
I0
s(g47
g113
tp1993
I0
s(g117
g49
tp1994
I0
s(g140
g45
tp1995
I0
s(g172
g145
tp1996
I0
s(g15
g41
tp1997
I0
s(g11
g110
tp1998
I0
s(g14
g77
tp1999
I0
s(g15
g67
tp2000
I0
s(g22
g71
tp2001
I0
s(g29
g81
tp2002
I0
s(g81
g15
tp2003
I0
s(g19
g49
tp2004
I0
s(g57
g51
tp2005
I0
s(g69
g172
tp2006
I0
s(g29
g151
tp2007
I0
s(g79
g159
tp2008
I0
s(g115
g17
tp2009
I0
s(g113
g26
tp2010
I0
s(g162
g151
tp2011
I0
s(g221
g94
tp2012
I0
s(g59
g87
tp2013
I0
s(g24
g14
tp2014
I0
s(g59
g117
tp2015
I0
s(g77
g69
tp2016
I0
s(g140
g47
tp2017
I0
s(g62
g67
tp2018
I0
s(g162
g147
tp2019
I0
s(g69
g6
tp2020
I0
s(g55
g6
tp2021
I0
s(g127
g86
tp2022
I0
s(g38
g43
tp2023
I0
s(g30
g97
tp2024
I0
s(g33
g162
tp2025
I0
s(g123
g20
tp2026
F0.44785276073619634
s(g123
g41
tp2027
I0
s(g162
g110
tp2028
I0
s(g41
g57
tp2029
I0
s(g79
g53
tp2030
I0
s(g2
g8
tp2031
I0
s(g12
g5
tp2032
I0
s(g131
g17
tp2033
I0
s(g43
g110
tp2034
I0
s(g24
g123
tp2035
I0
s(g15
g159
tp2036
I0
s(g53
g59
tp2037
I0
s(g2
g221
tp2038
F0.31726907630522089
s(g14
g12
tp2039
I0
s(g14
g75
tp2040
I0
s(g39
g35
tp2041
I0
s(g67
g75
tp2042
I0
s(g49
g55
tp2043
I0
s(g2
g273
tp2044
I0
s(g71
g29
tp2045
I0
s(g38
g53
tp2046
I0
s(g15
g131
tp2047
I0
s(g81
g159
tp2048
I0
s(g110
g127
tp2049
I0
s(g74
g6
tp2050
I0
s(g49
g117
tp2051
I0
s(g59
g19
tp2052
I0
s(g6
g188
tp2053
I0
s(g59
g67
tp2054
I0
s(g113
g273
tp2055
I0
s(g19
g57
tp2056
I0
s(g74
g123
tp2057
I0
s(g12
g35
tp2058
I0
s(g145
g159
tp2059
I0
s(g62
g47
tp2060
I0
s(g188
g273
tp2061
I0
s(g36
g24
tp2062
I0
s(g147
g83
tp2063
I0
s(g127
g69
tp2064
I0
s(g49
g191
tp2065
I0
s(g5
g188
tp2066
I0
s(g67
g19
tp2067
I0
s(g110
g35
tp2068
I0
s(g29
g19
tp2069
I0
s(g115
g140
tp2070
I0
s(g87
g172
tp2071
I0
s(g99
g83
tp2072
F0.61290322580645162
s(g66
g47
tp2073
I0
s(g62
g35
tp2074
I0
s(g6
g103
tp2075
I0
s(g94
g117
tp2076
I0
s(g140
g191
tp2077
I0
s(g6
g135
tp2078
I0
s(g159
g12
tp2079
I0
s(g29
g99
tp2080
I0
s(g188
g14
tp2081
I0
s(g67
g99
tp2082
I0
s(g77
g67
tp2083
I0
s(g24
g147
tp2084
I0
s(g162
g5
tp2085
I0
s(g57
g87
tp2086
I0
s(g9
g221
tp2087
I0
s(g59
g24
tp2088
I0
s(g26
g147
tp2089
I0
s(g59
g36
tp2090
I0
s(g26
g17
tp2091
I0
s(g51
g3
tp2092
I0
s(g107
g81
tp2093
I0
s(g33
g57
tp2094
I0
s(g145
g22
tp2095
I0
s(g51
g127
tp2096
I0
s(g115
g113
tp2097
I0
s(g81
g145
tp2098
I0
s(g51
g110
tp2099
I0
s(g99
g33
tp2100
I0
s(g221
g26
tp2101
I0
s(g123
g93
tp2102
I0
s(g59
g5
tp2103
I0
s(g75
g110
tp2104
I0
s(g2
g79
tp2105
I0
s(g162
g35
tp2106
I0
s(g93
g83
tp2107
I0
s(g51
g147
tp2108
I0
s(g35
g35
tp2109
F0.68498168498168499
s(g36
g115
tp2110
I0
s(g22
g86
tp2111
I0
s(g43
g188
tp2112
I0
s(g87
g113
tp2113
I0
s(g15
g81
tp2114
I0
s(g147
g11
tp2115
I0
s(g19
g27
tp2116
I0
s(g159
g107
tp2117
I0
s(g75
g188
tp2118
F0.81818181818181823
s(g3
g2
tp2119
I0
s(g26
g127
tp2120
I0
s(g113
g99
tp2121
I0
s(g140
g105
tp2122
I0
s(g9
g20
tp2123
I0
s(g221
g123
tp2124
I0
s(g51
g53
tp2125
I0
s(g140
g43
tp2126
I0
s(g147
g107
tp2127
I0
s(g53
g151
tp2128
I0
s(g53
g3
tp2129
I0
s(g127
g36
tp2130
I0
s(g115
g6
tp2131
I0
s(g188
g27
tp2132
I0
s(g79
g99
tp2133
I0
s(g66
g110
tp2134
I0
s(g22
g131
tp2135
I0
s(g117
g39
tp2136
I0
s(g55
g75
tp2137
I0
s(g47
g41
tp2138
I0
s(g15
g51
tp2139
I0
s(g135
g77
tp2140
I0
s(g6
g36
tp2141
I0
s(g83
g221
tp2142
I0
s(g49
g5
tp2143
I0
s(g53
g55
tp2144
I0
s(g97
g147
tp2145
I0
s(g66
g147
tp2146
I0
s(g20
g69
tp2147
I0
s(g22
g103
tp2148
I0
s(g140
g81
tp2149
I0
s(g99
g191
tp2150
I0
s(g6
g62
tp2151
I0
s(g151
g86
tp2152
I0
s(g159
g159
tp2153
F0.080000000000000002
s(g11
g11
tp2154
F0.74311926605504586
s(g32
g91
tp2155
I0
s(g17
g71
tp2156
I0
s(g51
g51
tp2157
F0.55729166666666663
s(g162
g22
tp2158
I0
s(g49
g151
tp2159
I0
s(g79
g147
tp2160
I0
s(g221
g145
tp2161
I0
s(g107
g77
tp2162
I0
s(g51
g77
tp2163
I0
s(g147
g8
tp2164
I0
s(g91
g11
tp2165
I0
s(g127
g151
tp2166
I0
s(g3
g75
tp2167
I0
s(g19
g127
tp2168
I0
s(g159
g97
tp2169
I0
s(g91
g24
tp2170
I0
s(g93
g39
tp2171
I0
s(g99
g8
tp2172
I0
s(g140
g97
tp2173
I0
s(g105
g110
tp2174
I0
s(g131
g77
tp2175
I0
s(g38
g140
tp2176
I0
s(g3
g69
tp2177
I0
s(g87
g45
tp2178
I0
s(g29
g59
tp2179
I0
s(g127
g83
tp2180
I0
s(g51
g97
tp2181
F0.44270833333333331
s(g110
g93
tp2182
I0
s(g59
g20
tp2183
I0
s(g36
g5
tp2184
I0
s(g145
g55
tp2185
I0
s(g159
g15
tp2186
I0
s(g188
g87
tp2187
I0
s(g221
g135
tp2188
I0
s(g94
g74
tp2189
I0
s(g67
g12
tp2190
I0
s(g55
g99
tp2191
I0
s(g69
g99
tp2192
I0
s(g55
g107
tp2193
I0
s(g6
g131
tp2194
I0
s(g20
g159
tp2195
I0
s(g113
g86
tp2196
I0
s(g66
g66
tp2197
F0.22857142857142856
s(g191
g188
tp2198
I0
s(g66
g35
tp2199
I0
s(g145
g94
tp2200
I0
s(g66
g51
tp2201
F0.7142857142857143
s(g105
g24
tp2202
I0
s(g35
g43
tp2203
I0
s(g123
g32
tp2204
I0
s(g145
g91
tp2205
I0
s(g117
g47
tp2206
I0
s(g20
g9
tp2207
I0
s(g66
g135
tp2208
I0
s(g105
g5
tp2209
I0
s(g151
g57
tp2210
I0
s(g55
g59
tp2211
I0
s(g117
g30
tp2212
I0
s(g273
g33
tp2213
I0
s(g30
g29
tp2214
I0
s(g24
g69
tp2215
I0
s(g33
g14
tp2216
I0
s(g221
g53
tp2217
I0
s(g36
g59
tp2218
I0
s(g107
g151
tp2219
I0
s(g32
g81
tp2220
I0
s(g74
g103
tp2221
I0
s(g221
g14
tp2222
I0
s(g159
g103
tp2223
I0
s(g188
g117
tp2224
I0
s(g32
g30
tp2225
I0
s(g77
g11
tp2226
I0
s(g3
g20
tp2227
I0
s(g30
g191
tp2228
I0
s(g66
g32
tp2229
I0
s(g221
g15
tp2230
I0
s(g131
g47
tp2231
I0
s(g27
g79
tp2232
I0
s(g67
g103
tp2233
I0
s(g71
g14
tp2234
I0
s(g30
g93
tp2235
I0
s(g221
g113
tp2236
I0
s(g127
g35
tp2237
I0
s(g188
g26
tp2238
I0
s(g8
g97
tp2239
I0
s(g127
g117
tp2240
I0
s(g131
g29
tp2241
I0
s(g127
g188
tp2242
I0
s(g67
g39
tp2243
I0
s(g127
g53
tp2244
I0
s(g15
g113
tp2245
I0
s(g66
g14
tp2246
I0
s(g94
g38
tp2247
I0
s(g97
g14
tp2248
I0
s(g131
g3
tp2249
I0
s(g97
g83
tp2250
I0
s(g135
g55
tp2251
I0
s(g131
g79
tp2252
I0
s(g103
g94
tp2253
F0.12254901960784313
s(g145
g131
tp2254
I0
s(g99
g81
tp2255
I0
s(g8
g99
tp2256
I0
s(g38
g115
tp2257
I0
s(g221
g91
tp2258
I0
s(g81
g39
tp2259
I0
s(g97
g59
tp2260
I0
s(g117
g77
tp2261
I0
s(g191
g97
tp2262
I0
s(g81
g5
tp2263
I0
s(g131
g86
tp2264
I0
s(g91
g33
tp2265
I0
s(g110
g79
tp2266
I0
s(g77
g117
tp2267
I0
s(g12
g135
tp2268
I0
s(g35
g32
tp2269
I0
s(g15
g188
tp2270
I0
s(g2
g159
tp2271
I0
s(g123
g115
tp2272
I0
s(g33
g8
tp2273
I0
s(g113
g172
tp2274
I0
s(g47
g110
tp2275
I0
s(g57
g27
tp2276
I0
s(g2
g135
tp2277
I0
s(g145
g49
tp2278
I0
s(g91
g91
tp2279
I0
s(g123
g71
tp2280
I0
s(g33
g12
tp2281
I0
s(g191
g131
tp2282
I0
s(g59
g162
tp2283
I0
s(g172
g97
tp2284
I0
s(g79
g94
tp2285
I0
s(g14
g66
tp2286
I0
s(g47
g33
tp2287
I0
s(g11
g140
tp2288
I0
s(g3
g147
tp2289
I0
s(g11
g19
tp2290
I0
s(g71
g8
tp2291
I0
s(g105
g9
tp2292
I0
s(g43
g8
tp2293
I0
s(g47
g15
tp2294
I0
s(g11
g24
tp2295
I0
s(g97
g103
tp2296
I0
s(g24
g74
tp2297
I0
s(g75
g113
tp2298
I0
s(g32
g24
tp2299
I0
s(g47
g79
tp2300
I0
s(g117
g33
tp2301
I0
s(g2
g17
tp2302
I0
s(g79
g5
tp2303
I0
s(g131
g24
tp2304
I0
s(g62
g97
tp2305
I0
s(g123
g77
tp2306
I0
s(g9
g188
tp2307
I0
s(g86
g103
tp2308
I0
s(g30
g79
tp2309
I0
s(g19
g74
tp2310
I0
s(g26
g221
tp2311
I0
s(g113
g22
tp2312
I0
s(g22
g22
tp2313
F0.54597701149425293
s(g87
g131
tp2314
I0
s(g151
g43
tp2315
I0
s(g110
g105
tp2316
I0
s(g69
g5
tp2317
I0
s(g14
g20
tp2318
I0
s(g8
g8
tp2319
F0.45394736842105265
s(g14
g41
tp2320
I0
s(g94
g33
tp2321
I0
s(g71
g107
tp2322
I0
s(g94
g273
tp2323
I0
s(g159
g93
tp2324
F0.71999999999999997
s(g47
g140
tp2325
I0
s(g6
g30
tp2326
I0
s(g99
g53
tp2327
I0
s(g67
g127
tp2328
I0
s(g19
g15
tp2329
I0
s(g17
g14
tp2330
I0
s(g35
g87
tp2331
I0
s(g49
g26
tp2332
I0
s(g93
g38
tp2333
I0
s(g151
g53
tp2334
I0
s(g159
g35
tp2335
I0
s(g5
g30
tp2336
I0
s(g55
g94
tp2337
I0
s(g115
g105
tp2338
I0
s(g30
g3
tp2339
I0
s(g29
g3
tp2340
I0
s(g62
g81
tp2341
I0
s(g41
g33
tp2342
I0
s(g83
g159
tp2343
I0
s(g29
g115
tp2344
I0
s(g36
g12
tp2345
I0
s(g94
g11
tp2346
I0
s(g188
g83
tp2347
I0
s(g47
g8
tp2348
I0
s(g71
g83
tp2349
I0
s(g131
g38
tp2350
I0
s(g105
g19
tp2351
I0
s(g17
g115
tp2352
I0
s(g151
g151
tp2353
F0.39130434782608697
s(g87
g62
tp2354
F1
s(g159
g123
tp2355
I0
s(g81
g38
tp2356
I0
s(g47
g103
tp2357
I0
s(g35
g81
tp2358
I0
s(g35
g159
tp2359
I0
s(g67
g22
tp2360
I0
s(g19
g45
tp2361
I0
s(g86
g159
tp2362
I0
s(g26
g62
tp2363
I0
s(g113
g127
tp2364
I0
s(g35
g66
tp2365
I0
s(g103
g59
tp2366
I0
s(g81
g11
tp2367
I0
s(g39
g51
tp2368
I0
s(g147
g29
tp2369
I0
s(g81
g93
tp2370
I0
s(g97
g97
tp2371
F0.68478260869565222
s(g91
g145
tp2372
I0
s(g14
g147
tp2373
I0
s(g51
g71
tp2374
I0
s(g32
g9
tp2375
I0
s(g99
g99
tp2376
F0.14516129032258066
s(g20
g53
tp2377
I0
s(g172
g105
tp2378
I0
s(g55
g41
tp2379
I0
s(g47
g75
tp2380
I0
s(g172
g2
tp2381
I0
s(g12
g77
tp2382
I0
s(g71
g38
tp2383
I0
s(g83
g69
tp2384
I0
s(g57
g135
tp2385
I0
s(g20
g221
tp2386
I0
s(g94
g22
tp2387
I0
s(g41
g140
tp2388
I0
s(g71
g103
tp2389
I0
s(g273
g81
tp2390
I0
s(g162
g123
tp2391
I0
s(g97
g191
tp2392
I0
s(g74
g105
tp2393
I0
s(g55
g12
tp2394
I0
s(g83
g75
tp2395
I0
s(g35
g145
tp2396
I0
s(g24
g117
tp2397
I0
s(g127
g26
tp2398
I0
s(g69
g19
tp2399
I0
s(g59
g127
tp2400
I0
s(g75
g123
tp2401
I0
s(g14
g14
tp2402
F0.46621621621621623
s(g36
g43
tp2403
I0
s(g5
g172
tp2404
I0
s(g151
g99
tp2405
I0
s(g123
g107
tp2406
I0
s(g67
g26
tp2407
I0
s(g135
g115
tp2408
I0
s(g14
g26
tp2409
I0
s(g77
g45
tp2410
I0
s(g105
g12
tp2411
I0
s(g53
g135
tp2412
I0
s(g91
g159
tp2413
I0
s(g103
g49
tp2414
I0
s(g24
g191
tp2415
I0
s(g115
g273
tp2416
I0
s(g127
g14
tp2417
I0
s(g86
g57
tp2418
I0
s(g113
g131
tp2419
I0
s(g6
g172
tp2420
I0
s(g17
g20
tp2421
I0
s(g87
g5
tp2422
I0
s(g67
g59
tp2423
I0
s(g110
g57
tp2424
I0
s(g135
g117
tp2425
I0
s(g87
g29
tp2426
I0
s(g75
g67
tp2427
I0
s(g127
g59
tp2428
I0
s(g135
g159
tp2429
I0
s(g147
g45
tp2430
I0
s(g51
g67
tp2431
I0
s(g67
g273
tp2432
I0
s(g8
g43
tp2433
I0
s(g127
g8
tp2434
I0
s(g140
g110
tp2435
I0
s(g24
g93
tp2436
I0
s(g77
g107
tp2437
I0
s(g35
g103
tp2438
I0
s(g79
g41
tp2439
I0
s(g26
g57
tp2440
F0.54081632653061229
s(g99
g77
tp2441
I0
s(g9
g62
tp2442
I0
s(g75
g159
tp2443
I0
s(g24
g273
tp2444
I0
s(g74
g273
tp2445
I0
s(g135
g147
tp2446
I0
s(g45
g57
tp2447
I0
s(g103
g51
tp2448
I0
s(g145
g6
tp2449
I0
s(g66
g115
tp2450
I0
s(g12
g145
tp2451
I0
s(g51
g107
tp2452
I0
s(g26
g191
tp2453
I0
s(g75
g55
tp2454
I0
s(g36
g81
tp2455
I0
s(g69
g188
tp2456
I0
s(g135
g67
tp2457
I0
s(g29
g191
tp2458
I0
s(g162
g32
tp2459
I0
s(g83
g3
tp2460
I0
s(g115
g43
tp2461
I0
s(g103
g36
tp2462
I0
s(g74
g9
tp2463
I0
s(g135
g145
tp2464
I0
s(g103
g14
tp2465
I0
s(g162
g19
tp2466
I0
s(g14
g32
tp2467
I0
s(g83
g77
tp2468
I0
s(g22
g62
tp2469
I0
s(g9
g74
tp2470
I0
s(g2
g75
tp2471
I0
s(g5
g103
tp2472
I0
s(g159
g140
tp2473
I0
s(g24
g94
tp2474
I0
s(g19
g107
tp2475
I0
s(g53
g53
tp2476
F0.72222222222222221
s(g38
g159
tp2477
I0
s(g273
g47
tp2478
I0
s(g123
g59
tp2479
F0.067484662576687116
s(g93
g66
tp2480
I0
s(g131
g135
tp2481
I0
s(g221
g33
tp2482
F0.40860215053763443
s(g79
g47
tp2483
F0.15527950310559005
s(g8
g67
tp2484
I0
s(g159
g32
tp2485
I0
s(g2
g110
tp2486
I0
s(g93
g59
tp2487
I0
s(g87
g6
tp2488
I0
s(g77
g86
tp2489
I0
s(g221
g87
tp2490
I0
s(g33
g45
tp2491
I0
s(g32
g55
tp2492
I0
s(g32
g6
tp2493
I0
s(g53
g71
tp2494
I0
s(g26
g115
tp2495
I0
s(g145
g53
tp2496
I0
s(g135
g36
tp2497
I0
s(g36
g159
tp2498
I0
s(g26
g43
tp2499
I0
s(g11
g159
tp2500
F0.0030581039755351682
s(g26
g32
tp2501
I0
s(g99
g35
tp2502
I0
s(g151
g12
tp2503
I0
s(g3
g14
tp2504
I0
s(g41
g159
tp2505
I0
s(g97
g74
tp2506
I0
s(g71
g87
tp2507
I0
s(g11
g117
tp2508
I0
s(g29
g11
tp2509
I0
s(g12
g74
tp2510
I0
s(g57
g24
tp2511
I0
s(g135
g162
tp2512
I0
s(g62
g53
tp2513
I0
s(g12
g221
tp2514
I0
s(g41
g49
tp2515
I0
s(g15
g273
tp2516
I0
s(g105
g123
tp2517
I0
s(g91
g9
tp2518
I0
s(g135
g26
tp2519
I0
s(g35
g30
tp2520
I0
s(g273
g29
tp2521
I0
s(g79
g11
tp2522
I0
s(g38
g91
tp2523
I0
s(g151
g69
tp2524
I0
s(g135
g71
tp2525
I0
s(g24
g113
tp2526
I0
s(g3
g59
tp2527
I0
s(g15
g105
tp2528
I0
s(g123
g19
tp2529
I0
s(g147
g117
tp2530
I0
s(g140
g51
tp2531
I0
s(g35
g69
tp2532
I0
s(g14
g57
tp2533
I0
s(g67
g57
tp2534
I0
s(g17
g62
tp2535
I0
s(g113
g140
tp2536
I0
s(g59
g41
tp2537
I0
s(g159
g33
tp2538
I0
s(g99
g19
tp2539
I0
s(g188
g99
tp2540
I0
s(g117
g67
tp2541
I0
s(g140
g79
tp2542
I0
s(g33
g20
tp2543
I0
s(g41
g17
tp2544
I0
s(g24
g2
tp2545
I0
s(g86
g43
tp2546
I0
s(g3
g159
tp2547
I0
s(g77
g27
tp2548
I0
s(g59
g93
tp2549
I0
s(g69
g221
tp2550
I0
s(g55
g43
tp2551
I0
s(g15
g9
tp2552
I0
s(g77
g81
tp2553
I0
s(g162
g115
tp2554
I0
s(g81
g66
tp2555
I0
s(g57
g57
tp2556
F0.5280898876404494
s(g69
g53
tp2557
I0
s(g15
g86
tp2558
I0
s(g6
g51
tp2559
I0
s(g191
g115
tp2560
I0
s(g172
g147
tp2561
I0
s(g140
g127
tp2562
I0
s(g162
g24
tp2563
I0
s(g24
g11
tp2564
I0
s(g33
g22
tp2565
I0
s(g145
g66
tp2566
I0
s(g123
g66
tp2567
I0
s(g172
g87
tp2568
I0
s(g2
g59
tp2569
I0
s(g103
g41
tp2570
I0
s(g147
g17
tp2571
I0
s(g151
g39
tp2572
I0
s(g117
g107
tp2573
I0
s(g131
g5
tp2574
I0
s(g115
g117
tp2575
F1
s(g15
g55
tp2576
I0
s(g86
g91
tp2577
I0
s(g83
g110
tp2578
I0
s(g107
g62
tp2579
I0
s(g145
g135
tp2580
I0
s(g27
g117
tp2581
I0
s(g6
g127
tp2582
F0.12616822429906541
s(g62
g91
tp2583
I0
s(g117
g35
tp2584
I0
s(g123
g221
tp2585
I0
s(g5
g105
tp2586
I0
s(g115
g20
tp2587
I0
s(g93
g20
tp2588
I0
s(g6
g32
tp2589
I0
s(g2
g33
tp2590
I0
s(g39
g115
tp2591
I0
s(g66
g26
tp2592
I0
s(g117
g151
tp2593
I0
s(g3
g140
tp2594
I0
s(g35
g123
tp2595
I0
s(g17
g188
tp2596
I0
s(g87
g20
tp2597
I0
s(g30
g99
tp2598
I0
s(g105
g135
tp2599
I0
s(g91
g140
tp2600
I0
s(g39
g47
tp2601
I0
s(g51
g115
tp2602
I0
s(g71
g77
tp2603
I0
s(g55
g57
tp2604
I0
s(g45
g151
tp2605
I0
s(g51
g43
tp2606
I0
s(g14
g145
tp2607
I0
s(g3
g19
tp2608
I0
s(g43
g51
tp2609
I0
s(g43
g45
tp2610
I0
s(g57
g32
tp2611
I0
s(g36
g47
tp2612
I0
s(g19
g151
tp2613
I0
s(g66
g99
tp2614
I0
s(g172
g27
tp2615
I0
s(g145
g5
tp2616
I0
s(g115
g66
tp2617
I0
s(g33
g51
tp2618
I0
s(g59
g27
tp2619
I0
s(g12
g79
tp2620
I0
s(g81
g59
tp2621
I0
s(g41
g29
tp2622
I0
s(g99
g51
tp2623
I0
s(g117
g22
tp2624
I0
s(g33
g94
tp2625
I0
s(g74
g43
tp2626
I0
s(g91
g55
tp2627
I0
s(g49
g74
tp2628
I0
s(g86
g41
tp2629
I0
s(g191
g86
tp2630
I0
s(g140
g41
tp2631
I0
s(g38
g47
tp2632
I0
s(g43
g97
tp2633
I0
s(g11
g45
tp2634
I0
s(g103
g17
tp2635
I0
s(g81
g67
tp2636
I0
s(g51
g172
tp2637
I0
s(g45
g8
tp2638
I0
s(g91
g131
tp2639
I0
s(g91
g51
tp2640
I0
s(g97
g67
tp2641
I0
s(g57
g2
tp2642
I0
s(g38
g81
tp2643
I0
s(g105
g87
tp2644
I0
s(g26
g3
tp2645
I0
s(g94
g66
tp2646
I0
s(g9
g45
tp2647
I0
s(g87
g81
tp2648
I0
s(g5
g11
tp2649
I0
s(g71
g91
tp2650
I0
s(g6
g67
tp2651
I0
s(g36
g39
tp2652
I0
s(g273
g35
tp2653
I0
s(g26
g41
tp2654
I0
s(g55
g20
tp2655
I0
s(g19
g67
tp2656
I0
s(g15
g49
tp2657
I0
s(g45
g2
tp2658
I0
s(g27
g123
tp2659
I0
s(g83
g41
tp2660
I0
s(g6
g45
tp2661
I0
s(g107
g36
tp2662
I0
s(g105
g115
tp2663
I0
s(g77
g99
tp2664
I0
s(g41
g15
tp2665
I0
s(g107
g43
tp2666
I0
s(g26
g38
tp2667
I0
s(g71
g49
tp2668
I0
s(g77
g47
tp2669
I0
s(g86
g221
tp2670
I0
s(g32
g67
tp2671
I0
s(g172
g127
tp2672
I0
s(g29
g110
tp2673
I0
s(g191
g29
tp2674
I0
s(g24
g26
tp2675
I0
s(g12
g81
tp2676
I0
s(g172
g3
tp2677
I0
s(g71
g162
tp2678
I0
s(g105
g59
tp2679
I0
s(g51
g188
tp2680
I0
s(g103
g110
tp2681
I0
s(g14
g151
tp2682
I0
s(g77
g38
tp2683
I0
s(g131
g39
tp2684
I0
s(g97
g71
tp2685
I0
s(g43
g172
tp2686
I0
s(g20
g26
tp2687
I0
s(g57
g22
tp2688
I0
s(g86
g93
tp2689
I0
s(g87
g107
tp2690
I0
s(g11
g113
tp2691
I0
s(g273
g79
tp2692
I0
s(g221
g159
tp2693
I0
s(g19
g117
tp2694
I0
s(g71
g27
tp2695
I0
s(g53
g123
tp2696
I0
s(g77
g20
tp2697
I0
s(g49
g86
tp2698
I0
s(g5
g162
tp2699
I0
s(g12
g191
tp2700
I0
s(g30
g51
tp2701
I0
s(g71
g24
tp2702
I0
s(g3
g55
tp2703
I0
s(g113
g97
tp2704
I0
s(g33
g105
tp2705
I0
s(g221
g93
tp2706
I0
s(g27
g93
tp2707
I0
s(g5
g22
tp2708
I0
s(g117
g6
tp2709
I0
s(g75
g273
tp2710
I0
s(g2
g191
tp2711
I0
s(g45
g75
tp2712
I0
s(g105
g6
tp2713
I0
s(g19
g103
tp2714
I0
s(g107
g140
tp2715
I0
s(g43
g113
tp2716
I0
s(g91
g77
tp2717
I0
s(g69
g66
tp2718
I0
s(g41
g75
tp2719
I0
s(g135
g97
tp2720
I0
s(g19
g38
tp2721
I0
s(g99
g41
tp2722
I0
s(g221
g83
tp2723
I0
s(g45
g77
tp2724
I0
s(g93
g113
tp2725
I0
s(g20
g93
tp2726
I0
s(g62
g140
tp2727
I0
s(g45
g27
tp2728
I0
s(g79
g12
tp2729
I0
s(g39
g105
tp2730
I0
s(g5
g26
tp2731
I0
s(g49
g24
tp2732
I0
s(g77
g74
tp2733
I0
s(g9
g191
tp2734
I0
s(g2
g41
tp2735
I0
s(g71
g57
tp2736
I0
s(g273
g221
tp2737
I0
s(g151
g26
tp2738
I0
s(g55
g221
tp2739
I0
s(g94
g2
tp2740
I0
s(g86
g145
tp2741
I0
s(g159
g273
tp2742
I0
s(g159
g43
tp2743
I0
s(g135
g12
tp2744
I0
s(g24
g9
tp2745
I0
s(g27
g36
tp2746
I0
s(g29
g74
tp2747
I0
s(g83
g8
tp2748
I0
s(g2
g49
tp2749
I0
s(g107
g135
tp2750
I0
s(g66
g74
tp2751
I0
s(g110
g86
tp2752
I0
s(g86
g188
tp2753
I0
s(g127
g172
tp2754
I0
s(g273
g103
tp2755
I0
s(g159
g53
tp2756
I0
s(g19
g83
tp2757
I0
s(g51
g2
tp2758
I0
s(g3
g131
tp2759
I0
s(g97
g86
tp2760
I0
s(g32
g14
tp2761
I0
s(g66
g151
tp2762
I0
s(g99
g47
tp2763
I0
s(g67
g191
tp2764
I0
s(g14
g6
tp2765
I0
s(g79
g103
tp2766
I0
s(g105
g94
tp2767
I0
s(g115
g94
tp2768
I0
s(g24
g221
tp2769
I0
s(g83
g191
tp2770
I0
s(g62
g49
tp2771
I0
s(g123
g74
tp2772
I0
s(g41
g83
tp2773
I0
s(g33
g55
tp2774
I0
s(g107
g20
tp2775
I0
s(g191
g83
tp2776
I0
s(g41
g59
tp2777
I0
s(g131
g49
tp2778
I0
s(g62
g159
tp2779
I0
s(g2
g9
tp2780
I0
s(g49
g273
tp2781
I0
s(g6
g91
tp2782
I0
s(g127
g113
tp2783
I0
s(g81
g99
tp2784
I0
s(g113
g53
tp2785
I0
s(g221
g39
tp2786
I0
s(g2
g93
tp2787
I0
s(g113
g105
tp2788
I0
s(g8
g93
tp2789
F0.072368421052631582
s(g103
g19
tp2790
I0
s(g27
g140
tp2791
I0
s(g140
g30
tp2792
I0
s(g191
g151
tp2793
I0
s(g79
g151
tp2794
I0
s(g107
g69
tp2795
I0
s(g9
g97
tp2796
I0
s(g38
g86
tp2797
I0
s(g71
g74
tp2798
I0
s(g17
g159
tp2799
I0
s(g71
g117
tp2800
I0
s(g24
g19
tp2801
I0
s(g75
g11
tp2802
I0
s(g221
g3
tp2803
I0
s(g3
g115
tp2804
I0
s(g17
g107
tp2805
I0
s(g77
g17
tp2806
I0
s(g33
g62
tp2807
I0
s(g172
g123
tp2808
I0
s(g103
g75
tp2809
I0
s(g57
g14
tp2810
I0
s(g123
g191
tp2811
I0
s(g97
g107
tp2812
I0
s(g36
g103
tp2813
I0
s(g147
g59
tp2814
I0
s(g5
g3
tp2815
F0.0035087719298245615
s(g94
g12
tp2816
I0
s(g97
g11
tp2817
I0
s(g19
g71
tp2818
I0
s(g33
g159
tp2819
I0
s(g67
g86
tp2820
I0
s(g145
g29
tp2821
I0
s(g123
g117
tp2822
I0
s(g83
g49
tp2823
I0
s(g79
g49
tp2824
I0
s(g162
g6
tp2825
I0
s(g93
g29
tp2826
I0
s(g115
g29
tp2827
I0
s(g17
g67
tp2828
I0
s(g110
g11
tp2829
I0
s(g140
g107
tp2830
I0
s(g62
g38
tp2831
I0
s(g115
g131
tp2832
I0
s(g5
g140
tp2833
I0
s(g115
g12
tp2834
I0
s(g24
g77
tp2835
I0
s(g110
g45
tp2836
I0
s(g66
g191
tp2837
I0
s(g131
g81
tp2838
I0
s(g17
g32
tp2839
I0
s(g36
g36
tp2840
F0.6228070175438597
s(g191
g5
tp2841
I0
s(g123
g38
tp2842
I0
s(g107
g8
tp2843
I0
s(g2
g35
tp2844
I0
s(g117
g12
tp2845
I0
s(g66
g117
tp2846
I0
s(g87
g12
tp2847
I0
s(g11
g162
tp2848
I0
s(g113
g9
tp2849
I0
s(g62
g86
tp2850
I0
s(g79
g162
tp2851
I0
s(g22
g38
tp2852
I0
s(g38
g97
tp2853
I0
s(g81
g81
tp2854
F0.086206896551724144
s(g74
g77
tp2855
I0
s(g66
g6
tp2856
I0
s(g151
g14
tp2857
I0
s(g191
g35
tp2858
I0
s(g5
g15
tp2859
I0
s(g26
g107
tp2860
I0
s(g39
g24
tp2861
I0
s(g91
g45
tp2862
I0
s(g77
g191
tp2863
I0
s(g145
g3
tp2864
I0
s(g27
g97
tp2865
I0
s(g6
g123
tp2866
I0
s(g29
g147
tp2867
I0
s(g19
g147
tp2868
I0
s(g26
g71
tp2869
I0
s(g36
g99
tp2870
I0
s(g35
g93
tp2871
I0
s(g147
g41
tp2872
I0
s(g30
g74
tp2873
I0
s(g49
g17
tp2874
I0
s(g162
g39
tp2875
I0
s(g17
g55
tp2876
I0
s(g38
g15
tp2877
I0
s(g131
g55
tp2878
I0
s(g9
g83
tp2879
I0
s(g53
g83
tp2880
I0
s(g105
g67
tp2881
I0
s(g131
g97
tp2882
I0
s(g117
g45
tp2883
I0
s(g17
g151
tp2884
I0
s(g27
g49
tp2885
I0
s(g14
g39
tp2886
I0
s(g79
g59
tp2887
I0
s(g9
g38
tp2888
I0
s(g43
g145
tp2889
I0
s(g94
g17
tp2890
I0
s(g66
g43
tp2891
I0
s(g6
g22
tp2892
I0
s(g11
g55
tp2893
I0
s(g49
g11
tp2894
I0
s(g43
g67
tp2895
I0
s(g49
g12
tp2896
I0
s(g36
g140
tp2897
I0
s(g99
g6
tp2898
I0
s(g12
g172
tp2899
I0
s(g39
g57
tp2900
I0
s(g62
g93
tp2901
I0
s(g81
g135
tp2902
I0
s(g24
g151
tp2903
I0
s(g91
g59
tp2904
I0
s(g19
g191
tp2905
I0
s(g41
g115
tp2906
I0
s(g30
g11
tp2907
I0
s(g39
g67
tp2908
I0
s(g140
g162
tp2909
I0
s(g33
g36
tp2910
I0
s(g87
g35
tp2911
I0
s(g135
g30
tp2912
I0
s(g94
g191
tp2913
I0
s(g27
g2
tp2914
I0
s(g59
g71
tp2915
I0
s(g6
g97
tp2916
I0
s(g8
g86
tp2917
I0
s(g27
g107
tp2918
I0
s(g15
g62
tp2919
I0
s(g147
g131
tp2920
I0
s(g53
g159
tp2921
I0
s(g135
g66
tp2922
I0
s(g135
g103
tp2923
I0
s(g103
g99
tp2924
I0
s(g66
g71
tp2925
I0
s(g93
g69
tp2926
I0
s(g26
g75
tp2927
I0
s(g38
g113
tp2928
I0
s(g43
g159
tp2929
I0
s(g110
g27
tp2930
I0
s(g99
g3
tp2931
I0
s(g43
g117
tp2932
I0
s(g26
g91
tp2933
I0
s(g93
g43
tp2934
I0
s(g17
g147
tp2935
I0
s(g74
g47
tp2936
I0
s(g49
g57
tp2937
I0
s(g172
g99
tp2938
I0
s(g43
g131
tp2939
I0
s(g162
g66
tp2940
I0
s(g105
g147
tp2941
I0
s(g41
g32
tp2942
I0
s(g93
g41
tp2943
I0
s(g20
g33
tp2944
I0
s(g83
g145
tp2945
I0
s(g87
g123
tp2946
I0
s(g131
g32
tp2947
I0
s(g62
g71
tp2948
I0
s(g67
g83
tp2949
I0
s(g94
g45
tp2950
I0
s(g39
g27
tp2951
I0
s(g117
g15
tp2952
I0
s(g9
g110
tp2953
I0
s(g74
g8
tp2954
I0
s(g86
g94
tp2955
F0.19587628865979381
s(g74
g110
tp2956
I0
s(g11
g33
tp2957
I0
s(g32
g15
tp2958
I0
s(g27
g8
tp2959
I0
s(g113
g69
tp2960
I0
s(g87
g15
tp2961
I0
s(g59
g39
tp2962
I0
s(g19
g32
tp2963
I0
s(g221
g45
tp2964
I0
s(g191
g11
tp2965
I0
s(g9
g55
tp2966
I0
s(g113
g67
tp2967
I0
s(g33
g140
tp2968
I0
s(g97
g66
tp2969
I0
s(g43
g123
tp2970
I0
s(g74
g140
tp2971
I0
s(g135
g14
tp2972
I0
s(g97
g30
tp2973
I0
s(g22
g107
tp2974
I0
s(g66
g22
tp2975
I0
s(g24
g45
tp2976
I0
s(g51
g93
tp2977
I0
s(g43
g33
tp2978
I0
s(g123
g29
tp2979
I0
s(g51
g131
tp2980
I0
s(g51
g9
tp2981
I0
s(g30
g6
tp2982
I0
s(g9
g113
tp2983
I0
s(g81
g131
tp2984
I0
s(g115
g11
tp2985
I0
s(g74
g107
tp2986
I0
s(g99
g75
tp2987
I0
s(g131
g83
tp2988
I0
s(g49
g77
tp2989
I0
s(g19
g87
tp2990
I0
s(g188
g221
tp2991
I0
s(g33
g83
tp2992
I0
s(g35
g91
tp2993
I0
s(g9
g26
tp2994
I0
s(g32
g45
tp2995
I0
s(g3
g123
tp2996
I0
s(g94
g9
tp2997
I0
s(g99
g69
tp2998
I0
s(g67
g55
tp2999
I0
s(g9
g14
tp3000
I0
s(g11
g9
tp3001
I0
s(g131
g131
tp3002
F0.43165467625899279
s(g172
g77
tp3003
I0
s(g43
g83
tp3004
I0
s(g105
g35
tp3005
I0
s(g105
g14
tp3006
I0
s(g62
g43
tp3007
I0
s(g3
g86
tp3008
F0.25170068027210885
s(g145
g79
tp3009
I0
s(g86
g3
tp3010
I0
s(g83
g19
tp3011
I0
s(g67
g43
tp3012
I0
s(g147
g75
tp3013
I0
s(g93
g32
tp3014
I0
s(g91
g123
tp3015
I0
s(g67
g36
tp3016
I0
s(g93
g140
tp3017
I0
s(g135
g20
tp3018
I0
s(g105
g43
tp3019
I0
s(g32
g47
tp3020
I0
s(g127
g49
tp3021
I0
s(g86
g77
tp3022
I0
s(g77
g29
tp3023
I0
s(g191
g55
tp3024
I0
s(g62
g131
tp3025
I0
s(g107
g188
tp3026
I0
s(g67
g49
tp3027
I0
s(g74
g36
tp3028
I0
s(g83
g33
tp3029
I0
s(g62
g77
tp3030
I0
s(g67
g53
tp3031
I0
s(g273
g140
tp3032
I0
s(g43
g9
tp3033
I0
s(g3
g66
tp3034
I0
s(g273
g24
tp3035
I0
s(g5
g20
tp3036
I0
s(g59
g47
tp3037
I0
s(g86
g53
tp3038
I0
s(g81
g20
tp3039
I0
s(g29
g123
tp3040
I0
s(g94
g94
tp3041
I0
s(g43
g86
tp3042
I0
s(g5
g87
tp3043
I0
s(g41
g9
tp3044
I0
s(g123
g99
tp3045
I0
s(g38
g35
tp3046
I0
s(g172
g53
tp3047
I0
s(g75
g131
tp3048
I0
s(g188
g6
tp3049
I0
s(g162
g47
tp3050
I0
s(g69
g59
tp3051
I0
s(g117
g66
tp3052
I0
s(g105
g22
tp3053
I0
s(g131
g103
tp3054
I0
s(g107
g17
tp3055
I0
s(g123
g6
tp3056
I0
s(g12
g3
tp3057
I0
s(g103
g147
tp3058
I0
s(g94
g105
tp3059
I0
s(g49
g127
tp3060
I0
s(g49
g36
tp3061
I0
s(g6
g38
tp3062
I0
s(g105
g66
tp3063
I0
s(g29
g29
tp3064
F0.52459016393442626
s(g110
g29
tp3065
I0
s(g172
g32
tp3066
I0
s(g29
g51
tp3067
I0
s(g38
g221
tp3068
I0
s(g87
g147
tp3069
I0
s(g6
g83
tp3070
I0
s(g115
g8
tp3071
I0
s(g2
g99
tp3072
I0
s(g27
g30
tp3073
I0
s(g83
g53
tp3074
I0
s(g45
g19
tp3075
F0.53658536585365857
s(g135
g107
tp3076
I0
s(g49
g62
tp3077
I0
s(g27
g103
tp3078
I0
s(g38
g123
tp3079
I0
s(g77
g59
tp3080
I0
s(g69
g151
tp3081
I0
s(g49
g79
tp3082
I0
s(g75
g19
tp3083
I0
s(g75
g140
tp3084
I0
s(g103
g27
tp3085
I0
s(g113
g49
tp3086
I0
s(g62
g32
tp3087
I0
s(g22
g55
tp3088
I0
s(g107
g159
tp3089
I0
s(g159
g99
tp3090
I0
s(g75
g172
tp3091
I0
s(g93
g188
tp3092
I0
s(g83
g43
tp3093
I0
s(g2
g145
tp3094
I0
s(g8
g123
tp3095
I0
s(g29
g86
tp3096
I0
s(g113
g113
tp3097
F0.71710526315789469
s(g273
g43
tp3098
I0
s(g39
g110
tp3099
I0
s(g3
g38
tp3100
I0
s(g87
g26
tp3101
I0
s(g147
g6
tp3102
I0
s(g123
g2
tp3103
I0
s(g35
g221
tp3104
I0
s(g93
g147
tp3105
I0
s(g145
g107
tp3106
I0
s(g191
g36
tp3107
I0
s(g151
g105
tp3108
I0
s(g191
g43
tp3109
I0
s(g115
g107
tp3110
I0
s(g191
g113
tp3111
I0
s(g41
g35
tp3112
I0
s(g6
g162
tp3113
I0
s(g14
g35
tp3114
I0
s(g77
g110
tp3115
I0
s(g47
g94
tp3116
I0
s(g47
g3
tp3117
I0
s(g9
g87
tp3118
I0
s(g151
g59
tp3119
I0
s(g191
g53
tp3120
I0
s(g41
g5
tp3121
I0
s(g172
g57
tp3122
I0
s(g15
g97
tp3123
I0
s(g2
g81
tp3124
I0
s(g29
g35
tp3125
F0.47540983606557374
s(g19
g110
tp3126
I0
s(g32
g35
tp3127
I0
s(g140
g91
tp3128
I0
s(g113
g29
tp3129
I0
s(g33
g188
tp3130
I0
s(g6
g107
tp3131
I0
s(g17
g51
tp3132
I0
s(g22
g91
tp3133
I0
s(g145
g99
tp3134
I0
s(g33
g221
tp3135
I0
s(g110
g62
tp3136
I0
s(g53
g91
tp3137
I0
s(g17
g135
tp3138
I0
s(g32
g8
tp3139
I0
s(g162
g43
tp3140
I0
s(g45
g9
tp3141
I0
s(g12
g107
tp3142
I0
s(g55
g74
tp3143
I0
s(g77
g162
tp3144
I0
s(g62
g55
tp3145
I0
s(g188
g57
tp3146
I0
s(g123
g12
tp3147
I0
s(g123
g75
tp3148
I0
s(g107
g22
tp3149
I0
s(g49
g59
tp3150
I0
s(g162
g49
tp3151
I0
s(g105
g77
tp3152
I0
s(g35
g12
tp3153
I0
s(g14
g87
tp3154
I0
s(g131
g145
tp3155
I0
s(g6
g47
tp3156
I0
s(g123
g69
tp3157
I0
s(g77
g103
tp3158
I0
s(g26
g74
tp3159
I0
s(g140
g135
tp3160
I0
s(g2
g45
tp3161
I0
s(g3
g93
tp3162
I0
s(g49
g14
tp3163
I0
s(g55
g79
tp3164
I0
s(g94
g59
tp3165
I0
s(g75
g51
tp3166
I0
s(g103
g83
tp3167
I0
s(g33
g87
tp3168
I0
s(g59
g97
tp3169
I0
s(g74
g87
tp3170
I0
s(g49
g20
tp3171
I0
s(g12
g43
tp3172
I0
s(g17
g30
tp3173
I0
s(g33
g81
tp3174
I0
s(g91
g151
tp3175
I0
s(g24
g75
tp3176
I0
s(g221
g36
tp3177
I0
s(g26
g11
tp3178
I0
s(g103
g6
tp3179
I0
s(g59
g123
tp3180
I0
s(g110
g131
tp3181
I0
s(g29
g38
tp3182
I0
s(g66
g103
tp3183
I0
s(g99
g59
tp3184
I0
s(g62
g12
tp3185
I0
s(g117
g191
tp3186
I0
s(g38
g62
tp3187
I0
s(g5
g79
tp3188
I0
s(g55
g147
tp3189
I0
s(g159
g20
tp3190
I0
s(g49
g123
tp3191
I0
s(g94
g15
tp3192
I0
s(g29
g127
tp3193
I0
s(g36
g49
tp3194
I0
s(g20
g66
tp3195
I0
s(g47
g24
tp3196
I0
s(g9
g69
tp3197
I0
s(g51
g113
tp3198
I0
s(g103
g127
tp3199
I0
s(g117
g11
tp3200
F0.16444444444444445
s(g105
g69
tp3201
I0
s(g131
g6
tp3202
I0
s(g162
g9
tp3203
F0.93548387096774188
s(g77
g79
tp3204
I0
s(g24
g162
tp3205
I0
s(g79
g74
tp3206
I0
s(g30
g26
tp3207
I0
s(g97
g39
tp3208
I0
s(g41
g39
tp3209
I0
s(g67
g14
tp3210
I0
s(g162
g77
tp3211
I0
s(g75
g49
tp3212
I0
s(g135
g87
tp3213
I0
s(g145
g17
tp3214
I0
s(g162
g81
tp3215
I0
s(g32
g36
tp3216
F0.61971830985915488
s(g71
g39
tp3217
I0
s(g159
g5
tp3218
I0
s(g123
g11
tp3219
I0
s(g135
g33
tp3220
I0
s(g39
g79
tp3221
I0
s(g159
g29
tp3222
I0
s(g110
g117
tp3223
I0
s(g69
g12
tp3224
I0
s(g188
g94
tp3225
I0
s(g36
g6
tp3226
I0
s(g67
g91
tp3227
I0
s(g127
g273
tp3228
I0
s(g17
g113
tp3229
I0
s(g221
g32
tp3230
I0
s(g53
g5
tp3231
I0
s(g113
g221
tp3232
I0
s(g36
g71
tp3233
I0
s(g32
g41
tp3234
I0
s(g81
g86
tp3235
I0
s(g87
g79
tp3236
I0
s(g14
g115
tp3237
I0
s(g107
g91
tp3238
I0
s(g45
g87
tp3239
I0
s(g8
g51
tp3240
I0
s(g8
g45
tp3241
I0
s(g159
g91
tp3242
I0
s(g55
g93
tp3243
I0
s(g71
g11
tp3244
F1
s(g62
g62
tp3245
F0.5955555555555555
s(g5
g24
tp3246
I0
s(g11
g47
tp3247
I0
s(g9
g105
tp3248
I0
s(g43
g87
tp3249
I0
s(g27
g135
tp3250
I0
s(g53
g22
tp3251
I0
s(g81
g69
tp3252
I0
s(g66
g19
tp3253
I0
s(g107
g75
tp3254
I0
s(g74
g62
tp3255
I0
s(g11
g94
tp3256
I0
s(g107
g273
tp3257
I0
s(g69
g71
tp3258
I0
s(g55
g103
tp3259
I0
s(g97
g57
tp3260
I0
s(g99
g66
tp3261
I0
s(g94
g5
tp3262
I0
s(g24
g12
tp3263
I0
s(g59
g115
tp3264
I0
s(g191
g107
tp3265
I0
s(g30
g59
tp3266
I0
s(g22
g162
tp3267
I0
s(g91
g117
tp3268
I0
s(g77
g273
tp3269
I0
s(g162
g94
tp3270
I0
s(g117
g79
tp3271
I0
s(g135
g6
tp3272
I0
s(g35
g38
tp3273
I0
s(g140
g67
tp3274
I0
s(g91
g8
tp3275
I0
s(g105
g49
tp3276
I0
s(g221
g151
tp3277
I0
s(g77
g71
tp3278
I0
s(g71
g26
tp3279
I0
s(g147
g43
tp3280
I0
s(g99
g221
tp3281
I0
s(g3
g221
tp3282
I0
s(g5
g83
tp3283
I0
s(g11
g29
tp3284
I0
s(g27
g22
tp3285
I0
s(g14
g3
tp3286
I0
s(g32
g22
tp3287
I0
s(g29
g17
tp3288
I0
s(g39
g86
tp3289
I0
s(g75
g145
tp3290
I0
s(g20
g27
tp3291
I0
s(g140
g24
tp3292
I0
s(g107
g24
tp3293
I0
s(g19
g22
tp3294
I0
s(g159
g55
tp3295
I0
s(g22
g20
tp3296
I0
s(g71
g71
tp3297
I0
s(g17
g47
tp3298
I0
s(g59
g74
tp3299
I0
s(g67
g66
tp3300
I0
s(g62
g66
tp3301
I0
s(g69
g273
tp3302
I0
s(g140
g20
tp3303
I0
s(g35
g86
tp3304
I0
s(g191
g8
tp3305
I0
s(g12
g151
tp3306
I0
s(g151
g117
tp3307
I0
s(g107
g105
tp3308
I0
s(g69
g22
tp3309
I0
s(g43
g29
tp3310
I0
s(g3
g151
tp3311
I0
s(g99
g94
tp3312
I0
s(g94
g127
tp3313
I0
s(g113
g30
tp3314
I0
s(g69
g14
tp3315
I0
s(g188
g97
tp3316
I0
s(g93
g159
tp3317
I0
s(g91
g3
tp3318
I0
s(g86
g8
tp3319
I0
s(g39
g140
tp3320
I0
s(g77
g147
tp3321
I0
s(g6
g26
tp3322
I0
s(g12
g123
tp3323
I0
s(g53
g87
tp3324
I0
s(g22
g105
tp3325
I0
s(g36
g17
tp3326
I0
s(g20
g14
tp3327
I0
s(g99
g20
tp3328
I0
s(g8
g117
tp3329
I0
s(g3
g5
tp3330
I0
s(g74
g151
tp3331
I0
s(g32
g188
tp3332
I0
s(g3
g12
tp3333
I0
s(g47
g22
tp3334
I0
s(g29
g135
tp3335
I0
s(g110
g135
tp3336
I0
s(g79
g62
tp3337
I0
s(g27
g71
tp3338
I0
s(g2
g107
tp3339
I0
s(g45
g53
tp3340
I0
s(g6
g55
tp3341
I0
s(g91
g5
tp3342
I0
s(g53
g47
tp3343
I0
s(g30
g66
tp3344
I0
s(g273
g53
tp3345
I0
s(g93
g71
tp3346
I0
s(g86
g191
tp3347
I0
s(g221
g9
tp3348
I0
s(g91
g53
tp3349
I0
s(g94
g69
tp3350
I0
s(g131
g107
tp3351
I0
s(g91
g36
tp3352
I0
s(g67
g81
tp3353
I0
s(g75
g30
tp3354
I0
s(g17
g11
tp3355
I0
s(g36
g135
tp3356
I0
s(g5
g117
tp3357
I0
s(g131
g11
tp3358
I0
s(g27
g57
tp3359
I0
s(g113
g110
tp3360
I0
s(g14
g140
tp3361
I0
s(g123
g147
tp3362
I0
s(g45
g127
tp3363
I0
s(g45
g103
tp3364
I0
s(g12
g67
tp3365
I0
s(g24
g172
tp3366
I0
s(g145
g24
tp3367
I0
s(g105
g79
tp3368
I0
s(g36
g117
tp3369
I0
s(g49
g93
tp3370
I0
s(g35
g57
tp3371
I0
s(g66
g59
tp3372
I0
s(g43
g11
tp3373
F0.31034482758620691
s(g66
g9
tp3374
I0
s(g97
g9
tp3375
I0
s(g74
g27
tp3376
I0
s(g71
g127
tp3377
I0
s(g12
g8
tp3378
I0
s(g151
g49
tp3379
I0
s(g55
g91
tp3380
I0
s(g188
g49
tp3381
I0
s(g8
g87
tp3382
I0
s(g20
g39
tp3383
I0
s(g113
g8
tp3384
I0
s(g9
g75
tp3385
I0
s(g51
g62
tp3386
I0
s(g113
g33
tp3387
I0
s(g71
g20
tp3388
I0
s(g188
g38
tp3389
I0
s(g67
g27
tp3390
I0
s(g5
g62
tp3391
I0
s(g105
g32
tp3392
I0
s(g140
g9
tp3393
I0
s(g99
g24
tp3394
I0
s(g6
g77
tp3395
I0
s(g9
g32
tp3396
I0
s(g14
g107
tp3397
I0
s(g221
g30
tp3398
I0
s(g5
g17
tp3399
I0
s(g103
g79
tp3400
I0
s(g69
g32
tp3401
F0.20465116279069767
s(g47
g39
tp3402
I0
s(g14
g2
tp3403
I0
s(g113
g47
tp3404
I0
s(g97
g26
tp3405
I0
s(g86
g36
tp3406
I0
s(g33
g145
tp3407
I0
s(g59
g45
tp3408
I0
s(g159
g221
tp3409
I0
s(g12
g33
tp3410
I0
s(g27
g24
tp3411
I0
s(g107
g221
tp3412
I0
s(g135
g51
tp3413
I0
s(g140
g74
tp3414
I0
s(g3
g11
tp3415
I0
s(g6
g79
tp3416
I0
s(g145
g86
tp3417
I0
s(g15
g145
tp3418
I0
s(g3
g117
tp3419
I0
s(g81
g75
tp3420
I0
s(g105
g113
tp3421
I0
s(g66
g55
tp3422
I0
s(g29
g77
tp3423
I0
s(g12
g22
tp3424
I0
s(g273
g45
tp3425
I0
s(g94
g6
tp3426
F0.60317460317460314
s(g99
g55
tp3427
I0
s(g17
g29
tp3428
F0.64130434782608692
s(g5
g71
tp3429
I0
s(g113
g107
tp3430
I0
s(g33
g30
tp3431
I0
s(g6
g29
tp3432
I0
s(g117
g113
tp3433
I0
s(g33
g69
tp3434
I0
s(g67
g3
tp3435
I0
s(g62
g22
tp3436
I0
s(g53
g15
tp3437
I0
s(g6
g5
tp3438
I0
s(g62
g83
tp3439
I0
s(g9
g30
tp3440
I0
s(g74
g2
tp3441
I0
s(g9
g35
tp3442
I0
s(g43
g15
tp3443
I0
s(g9
g2
tp3444
I0
s(g43
g105
tp3445
I0
s(g103
g191
tp3446
I0
s(g43
g62
tp3447
I0
s(g117
g135
tp3448
I0
s(g55
g71
tp3449
I0
s(g35
g20
tp3450
I0
s(g14
g123
tp3451
I0
s(g59
g14
tp3452
I0
s(g62
g26
tp3453
I0
s(g38
g151
tp3454
I0
s(g99
g38
tp3455
I0
s(g15
g117
tp3456
I0
s(g57
g162
tp3457
I0
s(g91
g26
tp3458
I0
s(g103
g55
tp3459
I0
s(g35
g22
tp3460
I0
s(g12
g86
tp3461
I0
s(g83
g67
tp3462
I0
s(g77
g6
tp3463
I0
s(g135
g75
tp3464
I0
s(g33
g123
tp3465
I0
s(g27
g38
tp3466
I0
s(g81
g2
tp3467
I0
s(g81
g117
tp3468
I0
s(g14
g69
tp3469
I0
s(g113
g45
tp3470
I0
s(g162
g159
tp3471
I0
s(g67
g32
tp3472
I0
s(g53
g99
tp3473
I0
s(g26
g26
tp3474
F0.21428571428571427
s(g93
g91
tp3475
I0
s(g55
g11
tp3476
I0
s(g159
g81
tp3477
I0
s(g79
g3
tp3478
I0
s(g172
g93
tp3479
I0
s(g99
g17
tp3480
I0
s(g62
g20
tp3481
I0
s(g66
g140
tp3482
I0
s(g103
g162
tp3483
I0
s(g11
g79
tp3484
I0
s(g135
g32
tp3485
I0
s(g29
g47
tp3486
I0
s(g75
g35
tp3487
I0
s(g75
g6
tp3488
I0
s(g55
g2
tp3489
I0
s(g47
g105
tp3490
I0
s(g51
g221
tp3491
I0
s(g86
g20
tp3492
I0
s(g33
g79
tp3493
I0
s(g9
g22
tp3494
I0
s(g27
g9
tp3495
I0
s(g53
g74
tp3496
I0
s(g17
g87
tp3497
I0
s(g9
g3
tp3498
I0
s(g43
g273
tp3499
I0
s(g62
g5
tp3500
I0
s(g11
g86
tp3501
I0
s(g49
g83
tp3502
F0.156794425087108
s(g79
g6
tp3503
I0
s(g97
g79
tp3504
I0
s(g86
g26
tp3505
I0
s(g29
g159
tp3506
I0
s(g11
g69
tp3507
I0
s(g29
g79
tp3508
I0
s(g115
g99
tp3509
I0
s(g162
g79
tp3510
I0
s(g135
g123
tp3511
I0
s(g53
g107
tp3512
I0
s(g117
g62
tp3513
I0
s(g135
g113
tp3514
I0
s(g51
g83
tp3515
I0
s(g159
g145
tp3516
I0
s(g99
g74
tp3517
I0
s(g69
g20
tp3518
I0
s(g12
g47
tp3519
I0
s(g33
g91
tp3520
I0
s(g151
g87
tp3521
I0
s(g131
g66
tp3522
I0
s(g97
g115
tp3523
I0
s(g57
g62
tp3524
I0
s(g172
g39
tp3525
I0
s(g27
g74
tp3526
I0
s(g140
g55
tp3527
I0
s(g11
g273
tp3528
I0
s(g221
g41
tp3529
I0
s(g113
g123
tp3530
I0
s(g94
g8
tp3531
I0
s(g87
g30
tp3532
I0
s(g135
g191
tp3533
I0
s(g11
g8
tp3534
F0.25382262996941896
s(g38
g20
tp3535
I0
s(g22
g11
tp3536
I0
s(g103
g5
tp3537
I0
s(g131
g36
tp3538
I0
s(g123
g14
tp3539
I0
s(g27
g131
tp3540
I0
s(g9
g19
tp3541
I0
s(g53
g8
tp3542
I0
s(g162
g135
tp3543
I0
s(g135
g172
tp3544
I0
s(g62
g147
tp3545
I0
s(g45
g47
tp3546
I0
s(g36
g147
tp3547
I0
s(g83
g9
tp3548
F0.097872340425531917
s(g93
g81
tp3549
I0
s(g36
g66
tp3550
I0
s(g51
g135
tp3551
I0
s(g59
g99
tp3552
I0
s(g83
g93
tp3553
I0
s(g110
g87
tp3554
I0
s(g117
g145
tp3555
I0
s(g51
g151
tp3556
I0
s(g29
g39
tp3557
I0
s(g36
g22
tp3558
I0
s(g151
g93
tp3559
I0
s(g81
g151
tp3560
I0
s(g159
g86
tp3561
I0
s(g71
g69
tp3562
I0
s(g62
g221
tp3563
I0
s(g57
g59
tp3564
I0
s(g30
g17
tp3565
I0
s(g17
g12
tp3566
I0
s(g115
g57
tp3567
I0
s(g162
g127
tp3568
I0
s(g67
g17
tp3569
I0
s(g5
g55
tp3570
I0
s(g11
g135
tp3571
I0
s(g97
g69
tp3572
I0
s(g8
g191
tp3573
I0
s(g75
g97
tp3574
I0
s(g94
g107
tp3575
I0
s(g188
g47
tp3576
I0
s(g127
g17
tp3577
I0
s(g9
g172
tp3578
I0
s(g15
g27
tp3579
I0
s(g135
g151
tp3580
I0
s(g12
g188
tp3581
I0
s(g20
g151
tp3582
I0
s(g191
g3
tp3583
I0
s(g15
g110
tp3584
I0
s(g2
g188
tp3585
I0
s(g22
g12
tp3586
I0
s(g57
g9
tp3587
I0
s(g8
g140
tp3588
I0
s(g8
g55
tp3589
I0
s(g79
g75
tp3590
I0
s(g35
g140
tp3591
I0
s(g94
g32
tp3592
I0
s(g105
g159
tp3593
I0
s(g145
g27
tp3594
I0
s(g57
g20
tp3595
I0
s(g43
g135
tp3596
I0
s(g53
g79
tp3597
I0
s(g103
g22
tp3598
I0
s(g67
g117
tp3599
I0
s(g36
g35
tp3600
I0
s(g117
g75
tp3601
I0
s(g49
g2
tp3602
I0
s(g162
g45
tp3603
I0
s(g113
g188
tp3604
I0
s(g74
g29
tp3605
I0
s(g20
g59
tp3606
F0.58870967741935487
s(g221
g43
tp3607
I0
s(g26
g103
tp3608
F0.24489795918367346
s(g26
g66
tp3609
I0
s(g15
g172
tp3610
I0
s(g41
g107
tp3611
I0
s(g17
g103
tp3612
I0
s(g62
g8
tp3613
I0
s(g15
g94
tp3614
I0
s(g188
g71
tp3615
I0
s(g53
g147
tp3616
I0
s(g145
g33
tp3617
I0
s(g97
g94
tp3618
I0
s(g47
g55
tp3619
I0
s(g11
g17
tp3620
I0
s(g69
g145
tp3621
I0
s(g15
g91
tp3622
I0
s(g140
g145
tp3623
I0
s(g94
g83
tp3624
I0
s(g74
g14
tp3625
I0
s(g12
g29
tp3626
I0
s(g8
g20
tp3627
I0
s(g115
g32
tp3628
I0
s(g69
g86
tp3629
I0
s(g117
g105
tp3630
I0
s(g36
g19
tp3631
I0
s(g107
g6
tp3632
I0
s(g127
g94
tp3633
I0
s(g123
g17
tp3634
I0
s(g147
g127
tp3635
I0
s(g86
g69
tp3636
I0
s(g59
g2
tp3637
I0
s(g36
g32
tp3638
I0
s(g81
g62
tp3639
I0
s(g38
g55
tp3640
I0
s(g32
g99
tp3641
I0
s(g93
g17
tp3642
I0
s(g87
g99
tp3643
I0
s(g83
g24
tp3644
I0
s(g14
g27
tp3645
I0
s(g77
g145
tp3646
I0
s(g117
g24
tp3647
I0
s(g9
g36
tp3648
I0
s(g38
g9
tp3649
I0
s(g69
g131
tp3650
I0
s(g45
g49
tp3651
F0.28455284552845528
s(g35
g33
tp3652
I0
s(g79
g107
tp3653
I0
s(g35
g273
tp3654
I0
s(g47
g69
tp3655
I0
s(g53
g39
tp3656
I0
s(g74
g86
tp3657
I0
s(g12
g97
tp3658
I0
s(g140
g159
tp3659
I0
s(g53
g38
tp3660
I0
s(g33
g115
tp3661
I0
s(g62
g145
tp3662
I0
s(g66
g17
tp3663
I0
s(g41
g110
tp3664
I0
s(g162
g71
tp3665
I0
s(g55
g38
tp3666
I0
s(g20
g140
tp3667
I0
s(g107
g33
tp3668
I0
s(g123
g57
tp3669
I0
s(g86
g5
tp3670
I0
s(g38
g38
tp3671
F0.42758620689655175
s(g26
g39
tp3672
I0
s(g2
g38
tp3673
I0
s(g172
g26
tp3674
I0
s(g69
g159
tp3675
I0
s(g159
g27
tp3676
I0
s(g71
g12
tp3677
I0
s(g3
g17
tp3678
I0
s(g147
g55
tp3679
I0
s(g107
g145
tp3680
I0
s(g49
g6
tp3681
I0
s(g107
g110
tp3682
I0
s(g83
g103
tp3683
I0
s(g62
g33
tp3684
I0
s(g77
g159
tp3685
I0
s(g110
g107
tp3686
I0
s(g8
g69
tp3687
I0
s(g221
g188
tp3688
I0
s(g5
g59
tp3689
I0
s(g147
g113
tp3690
I0
s(g159
g113
tp3691
I0
s(g117
g97
tp3692
I0
s(g39
g62
tp3693
I0
s(g27
g77
tp3694
I0
s(g33
g17
tp3695
I0
s(g55
g188
tp3696
I0
s(g105
g127
tp3697
I0
s(g19
g105
tp3698
I0
s(g159
g147
tp3699
I0
s(g24
g115
tp3700
I0
s(g127
g15
tp3701
I0
s(g191
g172
tp3702
I0
s(g3
g83
tp3703
I0
s(g172
g33
tp3704
I0
s(g97
g55
tp3705
I0
s(g191
g91
tp3706
I0
s(g35
g62
tp3707
F0.31501831501831501
s(g49
g113
tp3708
I0
s(g83
g273
tp3709
I0
s(g86
g97
tp3710
I0
s(g26
g5
tp3711
I0
s(g62
g151
tp3712
I0
s(g12
g53
tp3713
I0
s(g9
g17
tp3714
I0
s(g105
g74
tp3715
I0
s(g55
g14
tp3716
I0
s(g115
g22
tp3717
I0
s(g71
g55
tp3718
I0
s(g117
g29
tp3719
I0
s(g188
g51
tp3720
I0
s(g172
g151
tp3721
I0
s(g69
g8
tp3722
I0
s(g69
g33
tp3723
I0
s(g103
g66
tp3724
I0
s(g273
g145
tp3725
I0
s(g191
g273
tp3726
I0
s(g79
g55
tp3727
I0
s(g151
g140
tp3728
I0
s(g67
g24
tp3729
I0
s(g83
g39
tp3730
I0
s(g159
g26
tp3731
I0
s(g147
g26
tp3732
I0
s(g20
g41
tp3733
I0
s(g24
g87
tp3734
I0
s(g117
g81
tp3735
I0
s(g17
g59
tp3736
I0
s(g93
g12
tp3737
I0
s(g99
g91
tp3738
I0
s(g30
g20
tp3739
I0
s(g29
g2
tp3740
I0
s(g151
g115
tp3741
I0
s(g151
g6
tp3742
I0
s(g67
g45
tp3743
I0
s(g59
g57
tp3744
I0
s(g87
g97
tp3745
I0
s(g71
g145
tp3746
I0
s(g94
g145
tp3747
I0
s(g62
g273
tp3748
I0
s(g83
g97
tp3749
I0
s(g86
g2
tp3750
I0
s(g6
g35
tp3751
I0
s(g140
g2
tp3752
I0
s(g93
g74
tp3753
I0
s(g3
g105
tp3754
I0
s(g127
g45
tp3755
I0
s(g162
g11
tp3756
I0
s(g19
g273
tp3757
I0
s(g113
g79
tp3758
I0
s(g127
g67
tp3759
I0
s(g273
g3
tp3760
I0
s(g9
g273
tp3761
I0
s(g191
g47
tp3762
F0.6853932584269663
s(g127
g38
tp3763
I0
s(g51
g87
tp3764
I0
s(g273
g127
tp3765
I0
s(g91
g105
tp3766
I0
s(g87
g39
tp3767
I0
s(g57
g41
tp3768
I0
s(g115
g97
tp3769
I0
s(g66
g105
tp3770
I0
s(g127
g47
tp3771
I0
s(g38
g29
tp3772
I0
s(g38
g57
tp3773
I0
s(g103
g135
tp3774
I0
s(g135
g11
tp3775
I0
s(g29
g55
tp3776
I0
s(g151
g77
tp3777
I0
s(g86
g19
tp3778
I0
s(g2
g123
tp3779
I0
s(g12
g147
tp3780
I0
s(g15
g87
tp3781
I0
s(g83
g2
tp3782
I0
s(g86
g71
tp3783
I0
s(g15
g99
tp3784
I0
s(g151
g3
tp3785
I0
s(g115
g103
tp3786
I0
s(g151
g33
tp3787
I0
s(g123
g105
tp3788
I0
s(g53
g29
tp3789
I0
s(g159
g151
tp3790
I0
s(g5
g86
tp3791
I0
s(g86
g75
tp3792
I0
s(g140
g75
tp3793
I0
s(g12
g273
tp3794
I0
s(g93
g5
tp3795
I0
s(g22
g59
tp3796
I0
s(g33
g38
tp3797
I0
s(g17
g77
tp3798
I0
s(g87
g135
tp3799
I0
s(g91
g20
tp3800
I0
s(g110
g113
tp3801
I0
s(g87
g103
tp3802
I0
s(g30
g62
tp3803
I0
s(g32
g135
tp3804
I0
s(g57
g81
tp3805
I0
s(g140
g69
tp3806
F0.11792452830188679
s(g221
g75
tp3807
I0
s(g79
g66
tp3808
I0
s(g51
g38
tp3809
I0
s(g123
g53
tp3810
I0
s(g113
g87
tp3811
I0
s(g12
g39
tp3812
F0.19469026548672566
s(g41
g24
tp3813
I0
s(g87
g188
tp3814
I0
s(g135
g22
tp3815
I0
s(g59
g30
tp3816
I0
s(g103
g69
tp3817
I0
s(g59
g22
tp3818
I0
s(g105
g221
tp3819
I0
s(g115
g15
tp3820
I0
s(g35
g29
tp3821
I0
s(g191
g77
tp3822
I0
s(g86
g147
tp3823
I0
s(g97
g131
tp3824
I0
s(g15
g79
tp3825
I0
s(g77
g127
tp3826
I0
s(g57
g45
tp3827
I0
s(g97
g51
tp3828
I0
s(g79
g221
tp3829
I0
s(g71
g53
tp3830
I0
s(g19
g24
tp3831
I0
s(g110
g172
tp3832
I0
s(g110
g115
tp3833
I0
s(g83
g99
tp3834
I0
s(g47
g97
tp3835
I0
s(g145
g41
tp3836
I0
s(g162
g74
tp3837
I0
s(g57
g36
tp3838
I0
s(g71
g221
tp3839
I0
s(g123
g79
tp3840
I0
s(g57
g17
tp3841
I0
s(g14
g191
tp3842
I0
s(g147
g105
tp3843
I0
s(g12
g15
tp3844
I0
s(g97
g43
tp3845
I0
s(g127
g115
tp3846
I0
s(g77
g91
tp3847
I0
s(g191
g147
tp3848
I0
s(g11
g123
tp3849
I0
s(g110
g91
tp3850
I0
s(g273
g26
tp3851
I0
s(g79
g131
tp3852
I0
s(g41
g188
tp3853
I0
s(g9
g8
tp3854
I0
s(g113
g117
tp3855
I0
s(g115
g147
tp3856
I0
s(g221
g131
tp3857
I0
s(g33
g26
tp3858
I0
s(g69
g17
tp3859
I0
s(g140
g36
tp3860
I0
s(g49
g43
tp3861
I0
s(g71
g43
tp3862
I0
s(g62
g29
tp3863
I0
s(g66
g86
tp3864
I0
s(g74
g20
tp3865
I0
s(g2
g2
tp3866
F0.68273092369477917
s(g69
g147
tp3867
I0
s(g43
g38
tp3868
I0
s(g3
g103
tp3869
I0
s(g12
g30
tp3870
I0
s(g22
g172
tp3871
I0
s(g41
g38
tp3872
I0
s(g188
g62
tp3873
F0.011363636363636364
s(g188
g123
tp3874
I0
s(g30
g9
tp3875
I0
s(g55
g5
tp3876
I0
s(g159
g191
tp3877
I0
s(g81
g221
tp3878
I0
s(g57
g29
tp3879
I0
s(g20
g11
tp3880
I0
s(g8
g105
tp3881
I0
s(g75
g36
tp3882
I0
s(g191
g69
tp3883
I0
s(g29
g172
tp3884
I0
s(g131
g71
tp3885
I0
s(g188
g33
tp3886
I0
s(g38
g135
tp3887
I0
s(g22
g57
tp3888
I0
s(g39
g191
tp3889
I0
s(g172
g115
tp3890
I0
s(g221
g8
tp3891
I0
s(g93
g86
tp3892
I0
s(g24
g57
tp3893
I0
s(g51
g41
tp3894
I0
s(g19
g91
tp3895
I0
s(g26
g77
tp3896
I0
s(g12
g83
tp3897
I0
s(g20
g17
tp3898
I0
s(g151
g107
tp3899
I0
s(g221
g67
tp3900
I0
s(g20
g57
tp3901
I0
s(g49
g27
tp3902
I0
s(g151
g67
tp3903
I0
s(g24
g86
tp3904
I0
s(g67
g131
tp3905
I0
s(g27
g11
tp3906
I0
s(g77
g36
tp3907
I0
s(g115
g47
tp3908
I0
s(g15
g11
tp3909
I0
s(g147
g273
tp3910
I0
s(g86
g135
tp3911
I0
s(g77
g77
tp3912
F0.5401069518716578
s(g20
g45
tp3913
I0
s(g35
g77
tp3914
I0
s(g115
g87
tp3915
I0
s(g188
g74
tp3916
I0
s(g74
g131
tp3917
I0
s(g22
g45
tp3918
I0
s(g77
g12
tp3919
I0
s(g38
g273
tp3920
I0
s(g33
g131
tp3921
I0
s(g8
g12
tp3922
I0
s(g15
g15
tp3923
F0.72131147540983609
s(g8
g6
tp3924
I0
s(g127
g221
tp3925
I0
s(g55
g117
tp3926
I0
s(g75
g93
tp3927
I0
s(g8
g2
tp3928
I0
s(g145
g140
tp3929
I0
s(g38
g83
tp3930
I0
s(g27
g273
tp3931
I0
s(g45
g14
tp3932
I0
s(g147
g39
tp3933
I0
s(g273
g172
tp3934
I0
s(g221
g273
tp3935
I0
s(g221
g107
tp3936
I0
s(g91
g172
tp3937
I0
s(g6
g105
tp3938
I0
s(g140
g22
tp3939
I0
s(g5
g32
tp3940
I0
s(g41
g74
tp3941
I0
s(g66
g30
tp3942
I0
s(g15
g33
tp3943
I0
s(g35
g113
tp3944
I0
s(g26
g151
tp3945
I0
s(g30
g123
tp3946
I0
s(g47
g221
tp3947
I0
s(g27
g51
tp3948
I0
s(g117
g103
tp3949
I0
s(g3
g81
tp3950
I0
s(g24
g140
tp3951
I0
s(g145
g77
tp3952
I0
s(g191
g32
tp3953
I0
s(g3
g30
tp3954
I0
s(g39
g59
tp3955
I0
s(g32
g20
tp3956
I0
s(g17
g24
tp3957
I0
s(g81
g110
tp3958
I0
s(g69
g162
tp3959
I0
s(g91
g135
tp3960
I0
s(g57
g6
tp3961
I0
s(g38
g103
tp3962
I0
s(g49
g9
tp3963
I0
s(g69
g93
tp3964
I0
s(g83
g30
tp3965
I0
s(g3
g33
tp3966
I0
s(g55
g67
tp3967
I0
s(g15
g83
tp3968
I0
s(g159
g62
tp3969
I0
s(g9
g115
tp3970
I0
s(g22
g15
tp3971
I0
s(g91
g113
tp3972
I0
s(g9
g117
tp3973
I0
s(g147
g91
tp3974
I0
s(g49
g75
tp3975
I0
s(g131
g110
tp3976
I0
s(g81
g83
tp3977
I0
s(g81
g47
tp3978
I0
s(g91
g32
tp3979
I0
s(g62
g113
tp3980
I0
s(g49
g94
tp3981
I0
s(g8
g221
tp3982
I0
s(g32
g162
tp3983
I0
s(g151
g38
tp3984
I0
s(g35
g172
tp3985
I0
s(g22
g123
tp3986
I0
s(g127
g191
tp3987
I0
s(g105
g45
tp3988
I0
s(g33
g59
tp3989
I0
s(g140
g35
tp3990
I0
s(g77
g93
tp3991
I0
s(g27
g105
tp3992
I0
s(g140
g188
tp3993
I0
s(g22
g6
tp3994
I0
s(g75
g24
tp3995
I0
s(g162
g14
tp3996
I0
s(g105
g29
tp3997
I0
s(g38
g5
tp3998
I0
s(g110
g15
tp3999
I0
s(g172
g113
tp4000
I0
s(g55
g47
tp4001
I0
s(g145
g110
tp4002
I0
s(g83
g36
tp4003
I0
s(g81
g30
tp4004
I0
s(g47
g162
tp4005
I0
s(g35
g147
tp4006
I0
s(g5
g27
tp4007
I0
s(g27
g43
tp4008
I0
s(g62
g99
tp4009
I0
s(g103
g77
tp4010
I0
s(g79
g83
tp4011
I0
s(g131
g91
tp4012
I0
s(g30
g172
tp4013
I0
s(g93
g107
tp4014
I0
s(g38
g27
tp4015
I0
s(g20
g43
tp4016
I0
s(g39
g66
tp4017
I0
s(g55
g27
tp4018
I0
s(g71
g97
tp4019
I0
s(g57
g55
tp4020
I0
s(g30
g12
tp4021
I0
s(g5
g147
tp4022
I0
s(g57
g77
tp4023
I0
s(g5
g75
tp4024
I0
s(g131
g35
tp4025
I0
s(g87
g67
tp4026
I0
s(g8
g127
tp4027
I0
s(g188
g3
tp4028
I0
s(g97
g5
tp4029
I0
s(g79
g33
tp4030
I0
s(g69
g62
tp4031
I0
s(g105
g47
tp4032
I0
s(g6
g81
tp4033
I0
s(g172
g17
tp4034
I0
s(g99
g87
tp4035
I0
s(g71
g123
tp4036
I0
s(g11
g188
tp4037
I0
s(g117
g5
tp4038
I0
s(g117
g20
tp4039
I0
s(g38
g147
tp4040
I0
s(g36
g8
tp4041
I0
s(g172
g107
tp4042
I0
s(g41
g26
tp4043
I0
s(g41
g123
tp4044
I0
s(g81
g77
tp4045
I0
s(g57
g75
tp4046
I0
s(g115
g67
tp4047
I0
s(g172
g45
tp4048
I0
s(g38
g162
tp4049
I0
s(g191
g81
tp4050
I0
s(g131
g159
tp4051
I0
s(g32
g74
tp4052
I0
s(g79
g115
tp4053
I0
s(g27
g67
tp4054
I0
s(g27
g41
tp4055
I0
s(g151
g66
tp4056
I0
s(g162
g145
tp4057
I0
s(g39
g123
tp4058
I0
s(g131
g74
tp4059
I0
s(g221
g74
tp4060
I0
s(g113
g14
tp4061
I0
s(g8
g172
tp4062
I0
s(g33
g107
tp4063
I0
s(g123
g49
tp4064
I0
s(g273
g2
tp4065
I0
s(g15
g3
tp4066
I0
s(g113
g6
tp4067
I0
s(g123
g94
tp4068
I0
s(g162
g12
tp4069
I0
s(g27
g127
tp4070
I0
s(g2
g69
tp4071
I0
s(g12
g87
tp4072
I0
s(g131
g67
tp4073
I0
s(g103
g151
tp4074
I0
s(g24
g43
tp4075
I0
s(g11
g27
tp4076
I0
s(g27
g110
tp4077
I0
s(g81
g74
tp4078
I0
s(g2
g36
tp4079
I0
s(g79
g17
tp4080
I0
s(g14
g110
tp4081
I0
s(g49
g19
tp4082
I0
s(g97
g45
tp4083
F0.007246376811594203
s(g11
g57
tp4084
I0
s(g93
g2
tp4085
I0
s(g12
g36
tp4086
I0
s(g135
g273
tp4087
I0
s(g36
g105
tp4088
I0
s(g22
g17
tp4089
I0
s(g6
g66
tp4090
I0
s(g59
g17
tp4091
I0
s(g131
g127
tp4092
I0
s(g17
g22
tp4093
I0
s(g55
g62
tp4094
I0
s(g2
g94
tp4095
I0
s(g14
g43
tp4096
I0
s(g113
g38
tp4097
I0
s(g91
g17
tp4098
I0
s(g24
g17
tp4099
I0
s(g35
g151
tp4100
I0
s(g5
g66
tp4101
I0
s(g67
g6
tp4102
F0.13636363636363635
s(g51
g91
tp4103
I0
s(g29
g6
tp4104
I0
s(g103
g8
tp4105
I0
s(g26
g19
tp4106
I0
s(g115
g53
tp4107
I0
s(g43
g27
tp4108
I0
s(g172
g191
tp4109
I0
s(g5
g91
tp4110
I0
s(g159
g110
tp4111
I0
s(g3
g94
tp4112
I0
s(g35
g74
tp4113
I0
s(g26
g145
tp4114
I0
s(g79
g57
tp4115
I0
s(g93
g221
tp4116
I0
s(g159
g127
tp4117
I0
s(g27
g151
tp4118
I0
s(g162
g87
tp4119
I0
s(g53
g35
tp4120
I0
s(g53
g110
tp4121
I0
s(g57
g5
tp4122
I0
s(g151
g81
tp4123
I0
s(g32
g32
tp4124
F0.014084507042253521
s(g115
g27
tp4125
I0
s(g14
g53
tp4126
I0
s(g35
g9
tp4127
I0
s(g77
g49
tp4128
I0
s(g91
g162
tp4129
I0
s(g57
g8
tp4130
I0
s(g74
g99
tp4131
I0
s(g5
g47
tp4132
I0
s(g188
g32
tp4133
I0
s(g9
g43
tp4134
I0
s(g117
g162
tp4135
I0
s(g47
g67
tp4136
I0
s(g145
g75
tp4137
I0
s(g75
g12
tp4138
I0
s(g117
g27
tp4139
I0
s(g57
g273
tp4140
I0
s(g93
g75
tp4141
I0
s(g3
g29
tp4142
I0
s(g145
g87
tp4143
I0
s(g57
g145
tp4144
I0
s(g273
g191
tp4145
I0
s(g147
g140
tp4146
I0
s(g11
g87
tp4147
I0
s(g86
g9
tp4148
I0
s(g117
g159
tp4149
I0
s(g2
g105
tp4150
I0
s(g22
g36
tp4151
I0
s(g94
g135
tp4152
I0
s(g87
g51
tp4153
I0
s(g9
g49
tp4154
I0
s(g135
g105
tp4155
I0
s(g11
g43
tp4156
I0
s(g5
g33
tp4157
I0
s(g26
g159
tp4158
I0
s(g12
g11
tp4159
I0
s(g151
g27
tp4160
I0
s(g62
g9
tp4161
I0
s(g11
g32
tp4162
I0
s(g123
g162
tp4163
I0
s(g9
g53
tp4164
I0
s(g81
g57
tp4165
I0
s(g43
g91
tp4166
I0
s(g30
g2
tp4167
I0
s(g6
g33
tp4168
I0
s(g36
g38
tp4169
I0
s(g135
g15
tp4170
I0
s(g93
g15
tp4171
I0
s(g43
g162
tp4172
I0
s(g113
g41
tp4173
I0
s(g2
g77
tp4174
I0
s(g77
g57
tp4175
I0
s(g57
g151
tp4176
I0
s(g57
g107
tp4177
I0
s(g11
g53
tp4178
I0
s(g36
g41
tp4179
I0
s(g123
g55
tp4180
I0
s(g110
g55
tp4181
I0
s(g117
g43
tp4182
F0.15555555555555556
s(g107
g66
tp4183
I0
s(g12
g55
tp4184
I0
s(g69
g35
tp4185
I0
s(g51
g75
tp4186
I0
s(g6
g14
tp4187
I0
s(g5
g131
tp4188
I0
s(g8
g5
tp4189
I0
s(g113
g77
tp4190
I0
s(g273
g115
tp4191
F0.0062111801242236021
s(g140
g14
tp4192
I0
s(g14
g91
tp4193
I0
s(g191
g75
tp4194
I0
s(g162
g69
tp4195
I0
s(g131
g147
tp4196
I0
s(g188
g20
tp4197
I0
s(g81
g24
tp4198
I0
s(g22
g69
tp4199
I0
s(g83
g86
tp4200
I0
s(g147
g36
tp4201
I0
s(g55
g53
tp4202
I0
s(g103
g172
tp4203
I0
s(g140
g59
tp4204
I0
s(g94
g51
tp4205
I0
s(g105
g81
tp4206
I0
s(g30
g77
tp4207
I0
s(g123
g87
tp4208
I0
s(g105
g131
tp4209
I0
s(g6
g6
tp4210
F0.62616822429906538
s(g29
g97
tp4211
I0
s(g19
g86
tp4212
I0
s(g93
g105
tp4213
I0
s(g115
g93
tp4214
I0
s(g69
g55
tp4215
F0.060465116279069767
s(g27
g147
tp4216
I0
s(g57
g69
tp4217
I0
s(g140
g8
tp4218
I0
s(g145
g105
tp4219
I0
s(g127
g110
tp4220
I0
s(g55
g29
tp4221
I0
s(g159
g77
tp4222
I0
s(g110
g14
tp4223
I0
s(g67
g8
tp4224
I0
s(g6
g140
tp4225
I0
s(g67
g110
tp4226
F0.64772727272727271
s(g38
g191
tp4227
I0
s(g188
g147
tp4228
I0
s(g113
g62
tp4229
I0
s(g66
g188
tp4230
I0
s(g51
g24
tp4231
I0
s(g22
g51
tp4232
I0
s(g93
g162
tp4233
I0
s(g99
g49
tp4234
F0.24193548387096775
s(g107
g3
tp4235
I0
s(g27
g27
tp4236
F0.49404761904761907
s(g14
g11
tp4237
I0
s(g221
g71
tp4238
I0
s(g22
g47
tp4239
I0
s(g5
g99
tp4240
I0
s(g22
g115
tp4241
I0
s(g22
g94
tp4242
I0
s(g36
g86
tp4243
I0
s(g91
g127
tp4244
I0
s(g55
g97
tp4245
I0
s(g99
g135
tp4246
I0
s(g115
g24
tp4247
I0
s(g115
g135
tp4248
I0
s(g24
g33
tp4249
I0
s(g107
g59
tp4250
I0
s(g36
g97
tp4251
I0
s(g147
g38
tp4252
I0
s(g3
g39
tp4253
I0
s(g77
g8
tp4254
I0
s(g35
g71
tp4255
I0
s(g3
g49
tp4256
I0
s(g67
g107
tp4257
I0
s(g33
g74
tp4258
I0
s(g29
g107
tp4259
I0
s(g221
g20
tp4260
I0
s(g221
g81
tp4261
I0
s(g145
g19
tp4262
I0
s(g66
g62
tp4263
I0
s(g221
g77
tp4264
I0
s(g45
g24
tp4265
I0
s(g62
g57
tp4266
I0
s(g33
g39
tp4267
I0
s(g27
g188
tp4268
I0
s(g22
g87
tp4269
I0
s(g110
g94
tp4270
I0
s(g20
g3
tp4271
I0
s(g71
g131
tp4272
I0
s(g110
g49
tp4273
I0
s(g24
g27
tp4274
I0
s(g67
g74
tp4275
I0
s(g66
g36
tp4276
I0
s(g105
g51
tp4277
I0
s(g15
g29
tp4278
I0
s(g127
g66
tp4279
I0
s(g75
g66
tp4280
I0
s(g79
g29
tp4281
I0
s(g75
g103
tp4282
I0
s(g2
g22
tp4283
I0
s(g127
g39
tp4284
I0
s(g191
g6
tp4285
I0
s(g38
g145
tp4286
I0
s(g11
g99
tp4287
I0
s(g51
g79
tp4288
I0
s(g99
g14
tp4289
I0
s(g41
g99
tp4290
I0
s(g140
g99
tp4291
I0
s(g14
g273
tp4292
I0
s(g79
g79
tp4293
F0.46583850931677018
s(g162
g67
tp4294
I0
s(g162
g83
tp4295
I0
s(g57
g74
tp4296
I0
s(g3
g91
tp4297
I0
s(g6
g71
tp4298
I0
s(g36
g33
tp4299
I0
s(g8
g103
tp4300
I0
s(g19
g8
tp4301
I0
s(g66
g127
tp4302
I0
s(g273
g59
tp4303
I0
s(g75
g221
tp4304
I0
s(g123
g47
tp4305
I0
s(g110
g20
tp4306
I0
s(g6
g94
tp4307
I0
s(g81
g43
tp4308
I0
s(g24
g79
tp4309
I0
s(g273
g86
tp4310
I0
s(g94
g113
tp4311
I0
s(g2
g26
tp4312
I0
s(g147
g159
tp4313
I0
s(g26
g172
tp4314
I0
s(g71
g67
tp4315
I0
s(g5
g41
tp4316
I0
s(g117
g172
tp4317
I0
s(g59
g51
tp4318
I0
s(g11
g83
tp4319
I0
s(g19
g140
tp4320
I0
s(g145
g20
tp4321
I0
s(g107
g147
tp4322
I0
s(g55
g3
tp4323
I0
s(g151
g17
tp4324
I0
s(g11
g15
tp4325
I0
s(g11
g105
tp4326
I0
s(g11
g38
tp4327
I0
s(g113
g55
tp4328
I0
s(g57
g43
tp4329
I0
s(g172
g59
tp4330
I0
s(g14
g188
tp4331
I0
s(g29
g131
tp4332
I0
s(g162
g131
tp4333
I0
s(g127
g127
tp4334
F0.13333333333333333
s(g66
g24
tp4335
I0
s(g221
g99
tp4336
I0
s(g35
g26
tp4337
I0
s(g9
g15
tp4338
I0
s(g91
g86
tp4339
I0
s(g59
g91
tp4340
I0
s(g151
g191
tp4341
I0
s(g2
g5
tp4342
I0
s(g26
g113
tp4343
I0
s(g41
g11
tp4344
I0
s(g191
g12
tp4345
I0
s(g14
g24
tp4346
I0
s(g33
g29
tp4347
I0
s(g17
g6
tp4348
I0
s(g79
g172
tp4349
I0
s(g147
g123
tp4350
I0
s(g26
g6
tp4351
I0
s(g38
g69
tp4352
I0
s(g93
g135
tp4353
I0
s(g97
g99
tp4354
I0
s(g53
g145
tp4355
F0.0098039215686274508
s(g6
g3
tp4356
I0
s(g110
g30
tp4357
I0
s(g127
g27
tp4358
I0
s(g99
g117
tp4359
I0
s(g94
g36
tp4360
I0
s(g14
g49
tp4361
I0
s(g38
g172
tp4362
I0
s(g135
g94
tp4363
I0
s(g97
g27
tp4364
F0.3079710144927536
s(g12
g51
tp4365
I0
s(g5
g9
tp4366
I0
s(g29
g71
tp4367
I0
s(g17
g191
tp4368
I0
s(g135
g47
tp4369
I0
s(g19
g36
tp4370
I0
s(g5
g93
tp4371
I0
s(g59
g83
tp4372
I0
s(g19
g77
tp4373
I0
s(g24
g41
tp4374
I0
s(g35
g5
tp4375
I0
s(g57
g147
tp4376
I0
s(g29
g91
tp4377
I0
s(g22
g19
tp4378
I0
s(g12
g14
tp4379
I0
s(g17
g93
tp4380
I0
s(g6
g93
tp4381
I0
s(g147
g86
tp4382
I0
s(g32
g2
tp4383
I0
s(g117
g26
tp4384
I0
s(g131
g51
tp4385
I0
s(g83
g26
tp4386
I0
s(g29
g94
tp4387
I0
s(g159
g162
tp4388
I0
s(g36
g110
tp4389
I0
s(g67
g94
tp4390
I0
s(g5
g38
tp4391
F0.29122807017543861
s(g27
g145
tp4392
I0
s(g20
g38
tp4393
I0
s(g162
g113
tp4394
I0
s(g53
g81
tp4395
I0
s(g53
g49
tp4396
I0
s(g162
g51
tp4397
I0
s(g99
g131
tp4398
I0
s(g6
g115
tp4399
I0
s(g94
g123
tp4400
I0
s(g115
g30
tp4401
I0
s(g74
g115
tp4402
I0
s(g97
g151
tp4403
I0
s(g20
g162
tp4404
I0
s(g123
g135
tp4405
I0
s(g87
g86
tp4406
I0
s(g123
g140
tp4407
I0
s(g29
g69
tp4408
I0
s(g32
g273
tp4409
I0
s(g107
g32
tp4410
I0
s(g33
g47
tp4411
I0
s(g43
g55
tp4412
I0
s(g12
g91
tp4413
I0
s(g3
g57
tp4414
I0
s(g105
g83
tp4415
I0
s(g159
g9
tp4416
I0
s(g49
g66
tp4417
F0.013937282229965157
s(g83
g147
tp4418
I0
s(g93
g131
tp4419
I0
s(g20
g123
tp4420
I0
s(g53
g131
tp4421
I0
s(g131
g30
tp4422
I0
s(g86
g99
tp4423
I0
s(g107
g83
tp4424
I0
s(g27
g81
tp4425
I0
s(g32
g75
tp4426
I0
s(g172
g140
tp4427
I0
s(g15
g57
tp4428
I0
s(g86
g110
tp4429
I0
s(g107
g38
tp4430
I0
s(g147
g2
tp4431
I0
s(g47
g9
tp4432
I0
s(g59
g188
tp4433
I0
s(g159
g38
tp4434
I0
s(g19
g81
tp4435
I0
s(g9
g140
tp4436
I0
s(g113
g75
tp4437
I0
s(g15
g191
tp4438
F0.065573770491803282
s(g38
g110
tp4439
I0
s(g123
g83
tp4440
I0
s(g107
g41
tp4441
I0
s(g99
g62
tp4442
I0
s(g147
g77
tp4443
I0
s(g27
g26
tp4444
I0
s(g191
g71
tp4445
I0
s(g117
g2
tp4446
I0
s(g55
g110
tp4447
I0
s(g35
g17
tp4448
I0
s(g107
g93
tp4449
I0
s(g3
g24
tp4450
I0
s(g83
g51
tp4451
I0
s(g79
g69
tp4452
I0
s(g24
g20
tp4453
I0
s(g35
g55
tp4454
I0
s(g38
g8
tp4455
I0
s(g36
g30
tp4456
F0.11403508771929824
s(g45
g11
tp4457
I0
s(g49
g131
tp4458
I0
s(g127
g11
tp4459
I0
s(g69
g81
tp4460
I0
s(g103
g62
tp4461
I0
s(g113
g43
tp4462
I0
s(g55
g273
tp4463
I0
s(g26
g97
tp4464
I0
s(g74
g51
tp4465
I0
s(g38
g6
tp4466
I0
s(g107
g191
tp4467
I0
s(g123
g3
tp4468
I0
s(g14
g38
tp4469
I0
s(g51
g191
tp4470
I0
s(g123
g33
tp4471
I0
s(g103
g20
tp4472
I0
s(g41
g30
tp4473
I0
s(g147
g71
tp4474
I0
s(g6
g110
tp4475
I0
s(g35
g191
tp4476
I0
s(g67
g97
tp4477
I0
s(g123
g91
tp4478
I0
s(g29
g145
tp4479
I0
s(g12
g99
tp4480
I0
s(g47
g30
tp4481
I0
s(g75
g17
tp4482
I0
s(g107
g103
tp4483
I0
s(g49
g162
tp4484
I0
s(g47
g81
tp4485
I0
s(g221
g117
tp4486
I0
s(g33
g151
tp4487
I0
s(g53
g94
tp4488
I0
s(g110
g81
tp4489
I0
s(g57
g221
tp4490
I0
s(g24
g29
tp4491
I0
s(g74
g97
tp4492
I0
s(g159
g66
tp4493
I0
s(g15
g115
tp4494
I0
s(g55
g9
tp4495
I0
s(g38
g26
tp4496
I0
s(g140
g12
tp4497
I0
s(g8
g135
tp4498
I0
s(g57
g99
tp4499
I0
s(g99
g15
tp4500
I0
s(g9
g86
tp4501
I0
s(g91
g81
tp4502
I0
s(g62
g191
tp4503
I0
s(g115
g162
tp4504
I0
s(g69
g15
tp4505
I0
s(g69
g87
tp4506
I0
s(g22
g83
tp4507
I0
s(g99
g110
tp4508
I0
s(g69
g30
tp4509
I0
s(g188
g67
tp4510
I0
s(g103
g273
tp4511
I0
s(g151
g29
tp4512
I0
s(g39
g145
tp4513
I0
s(g135
g17
tp4514
I0
s(g9
g93
tp4515
I0
s(g41
g151
tp4516
I0
s(g151
g51
tp4517
I0
s(g94
g172
tp4518
I0
s(g55
g105
tp4519
I0
s(g75
g77
tp4520
I0
s(g91
g94
tp4521
I0
s(g75
g39
tp4522
I0
s(g99
g29
tp4523
I0
s(g62
g6
tp4524
I0
s(g53
g113
tp4525
I0
s(g151
g79
tp4526
F0.086956521739130432
s(g67
g123
tp4527
I0
s(g69
g9
tp4528
I0
s(g83
g15
tp4529
I0
s(g159
g57
tp4530
I0
s(g87
g71
tp4531
I0
s(g49
g47
tp4532
I0
s(g67
g33
tp4533
I0
s(g14
g93
tp4534
I0
s(g45
g105
tp4535
I0
s(g75
g75
tp4536
I0
s(g221
g12
tp4537
I0
s(g221
g35
tp4538
I0
s(g53
g14
tp4539
I0
s(g67
g15
tp4540
I0
s(g83
g123
tp4541
I0
s(g123
g97
tp4542
I0
s(g127
g103
tp4543
I0
s(g20
g99
tp4544
I0
s(g66
g162
tp4545
I0
s(g15
g135
tp4546
F0.019672131147540985
s(g91
g273
tp4547
I0
s(g67
g35
tp4548
I0
s(g39
g159
tp4549
I0
s(g47
g45
tp4550
I0
s(g159
g71
tp4551
I0
s(g66
g273
tp4552
I0
s(g94
g20
tp4553
I0
s(g2
g12
tp4554
I0
s(g3
g53
tp4555
I0
s(g172
g83
tp4556
I0
s(g77
g62
tp4557
I0
s(g11
g3
tp4558
I0
s(g221
g5
tp4559
I0
s(g43
g47
tp4560
I0
s(g2
g62
tp4561
I0
s(g24
g105
tp4562
I0
s(g11
g127
tp4563
I0
s(g39
g127
tp4564
I0
s(g145
g151
tp4565
I0
s(g43
g94
tp4566
I0
s(g30
g115
tp4567
I0
s(g22
g43
tp4568
I0
s(g74
g188
tp4569
I0
s(g162
g55
tp4570
I0
s(g107
g117
tp4571
I0
s(g74
g93
tp4572
I0
s(g151
g110
tp4573
I0
s(g115
g62
tp4574
I0
s(g188
g110
tp4575
I0
s(g147
g172
tp4576
I0
s(g41
g20
tp4577
I0
s(g83
g35
tp4578
I0
s(g74
g41
tp4579
I0
s(g273
g107
tp4580
I0
s(g9
g41
tp4581
I0
s(g12
g71
tp4582
I0
s(g188
g91
tp4583
I0
s(g273
g17
tp4584
I0
s(g86
g123
tp4585
I0
s(g123
g273
tp4586
I0
s(g53
g45
tp4587
I0
s(g103
g26
tp4588
I0
s(g93
g9
tp4589
I0
s(g110
g69
tp4590
I0
s(g74
g38
tp4591
I0
s(g15
g77
tp4592
I0
s(g3
g97
tp4593
I0
s(g2
g71
tp4594
I0
s(g19
g2
tp4595
I0
s(g32
g62
tp4596
I0
s(g30
g15
tp4597
I0
s(g39
g15
tp4598
I0
s(g97
g123
tp4599
I0
s(g32
g115
tp4600
I0
s(g86
g273
tp4601
I0
s(g36
g53
tp4602
I0
s(g110
g75
tp4603
I0
s(g159
g69
tp4604
I0
s(g145
g12
tp4605
I0
s(g87
g36
tp4606
I0
s(g123
g8
tp4607
I0
s(g19
g62
tp4608
I0
s(g69
g69
tp4609
F0.59999999999999998
s(g30
g113
tp4610
I0
s(g11
g91
tp4611
I0
s(g81
g41
tp4612
I0
s(g14
g81
tp4613
I0
s(g105
g107
tp4614
I0
s(g107
g87
tp4615
I0
s(g51
g26
tp4616
I0
s(g45
g191
tp4617
I0
s(g273
g159
tp4618
I0
s(g159
g22
tp4619
I0
s(g81
g188
tp4620
I0
s(g86
g39
tp4621
I0
s(g221
g127
tp4622
I0
s(g273
g117
tp4623
F0.17080745341614906
s(g67
g47
tp4624
I0
s(g20
g77
tp4625
I0
s(g71
g45
tp4626
I0
s(g123
g188
tp4627
I0
s(g45
g117
tp4628
I0
s(g45
g93
tp4629
I0
s(g188
g75
tp4630
I0
s(g59
g66
tp4631
I0
s(g9
g81
tp4632
I0
s(g77
g51
tp4633
I0
s(g26
g33
tp4634
I0
s(g26
g22
tp4635
I0
s(g8
g53
tp4636
I0
s(g33
g9
tp4637
I0
s(g36
g62
tp4638
I0
s(g83
g12
tp4639
I0
s(g107
g86
tp4640
I0
s(g87
g151
tp4641
I0
s(g33
g127
tp4642
I0
s(g188
g77
tp4643
I0
s(g8
g145
tp4644
I0
s(g9
g147
tp4645
I0
s(g47
g86
tp4646
I0
s(g71
g9
tp4647
I0
s(g115
g49
tp4648
I0
s(g188
g11
tp4649
I0
s(g159
g135
tp4650
I0
s(g91
g191
tp4651
I0
s(g12
g94
tp4652
I0
s(g273
g20
tp4653
I0
s(g69
g191
tp4654
I0
s(g99
g115
tp4655
I0
s(g27
g91
tp4656
I0
s(g99
g172
tp4657
I0
s(g145
g162
tp4658
I0
s(g8
g66
tp4659
I0
s(g3
g191
tp4660
I0
s(g51
g162
tp4661
I0
s(g145
g26
tp4662
I0
s(g151
g172
tp4663
I0
s(g99
g27
tp4664
I0
s(g17
g66
tp4665
I0
s(g79
g117
tp4666
I0
s(g71
g30
tp4667
I0
s(g87
g49
tp4668
I0
s(g221
g2
tp4669
I0
s(g140
g71
tp4670
I0
s(g69
g74
tp4671
I0
s(g105
g75
tp4672
I0
s(g51
g19
tp4673
I0
s(g75
g81
tp4674
I0
s(g66
g3
tp4675
I0
s(g71
g15
tp4676
I0
s(g59
g159
tp4677
I0
s(g86
g12
tp4678
I0
s(g14
g17
tp4679
I0
s(g191
g19
tp4680
I0
s(g135
g35
tp4681
I0
s(g15
g45
tp4682
I0
s(g105
g91
tp4683
I0
s(g3
g6
tp4684
I0
s(g20
g91
tp4685
I0
s(g117
g93
tp4686
I0
s(g97
g15
tp4687
I0
s(g107
g47
tp4688
I0
s(g221
g79
tp4689
I0
s(g27
g5
tp4690
I0
s(g57
g71
tp4691
I0
s(g15
g162
tp4692
I0
s(g51
g99
tp4693
I0
s(g14
g45
tp4694
I0
s(g17
g221
tp4695
I0
s(g115
g188
tp4696
I0
s(g32
g145
tp4697
I0
s(g113
g74
tp4698
I0
s(g93
g22
tp4699
I0
s(g99
g113
tp4700
I0
s(g81
g97
tp4701
I0
s(g110
g6
tp4702
I0
s(g35
g162
tp4703
I0
s(g6
g117
tp4704
I0
s(g39
g172
tp4705
I0
s(g105
g55
tp4706
I0
s(g12
g38
tp4707
I0
s(g145
g43
tp4708
I0
s(g159
g17
tp4709
I0
s(g273
g62
tp4710
I0
s(g6
g191
tp4711
I0
s(g103
g145
tp4712
I0
s(g188
g8
tp4713
I0
s(g59
g145
tp4714
I0
s(g172
g11
tp4715
I0
s(g67
g147
tp4716
I0
s(g115
g14
tp4717
I0
s(g74
g39
tp4718
I0
s(g113
g3
tp4719
I0
s(g8
g39
tp4720
I0
s(g35
g127
tp4721
I0
s(g172
g110
tp4722
I0
s(g140
g147
tp4723
F0.15094339622641509
s(g105
g2
tp4724
I0
s(g127
g162
tp4725
I0
s(g59
g110
tp4726
I0
s(g81
g51
tp4727
I0
s(g20
g172
tp4728
I0
s(g87
g191
tp4729
I0
s(g172
g103
tp4730
I0
s(g57
g159
tp4731
I0
s(g75
g151
tp4732
I0
s(g32
g159
tp4733
I0
s(g221
g62
tp4734
I0
s(g17
g273
tp4735
I0
s(g94
g188
tp4736
I0
s(g94
g24
tp4737
I0
s(g105
g11
tp4738
I0
s(g131
g273
tp4739
I0
s(g91
g69
tp4740
I0
s(g19
g172
tp4741
I0
s(g6
g17
tp4742
I0
s(g39
g113
tp4743
I0
s(g172
g43
tp4744
I0
s(g57
g131
tp4745
I0
s(g107
g162
tp4746
I0
s(g140
g29
tp4747
I0
s(g91
g62
tp4748
I0
s(g2
g55
tp4749
I0
s(g43
g99
tp4750
I0
s(g55
g49
tp4751
I0
s(g35
g83
tp4752
I0
s(g35
g59
tp4753
I0
s(g131
g8
tp4754
I0
s(g91
g115
tp4755
I0
s(g93
g35
tp4756
I0
s(g83
g113
tp4757
I0
s(g79
g273
tp4758
I0
s(g5
g53
tp4759
I0
s(g123
g9
tp4760
I0
s(g103
g81
tp4761
I0
s(g71
g47
tp4762
I0
s(g151
g94
tp4763
I0
s(g49
g41
tp4764
I0
s(g9
g33
tp4765
I0
s(g53
g93
tp4766
I0
s(g145
g57
tp4767
I0
s(g33
g273
tp4768
F0.51298701298701299
s(g103
g12
tp4769
I0
s(g59
g86
tp4770
I0
s(g97
g36
tp4771
I0
s(g6
g49
tp4772
I0
s(g75
g41
tp4773
I0
s(g5
g43
tp4774
I0
s(g19
g113
tp4775
I0
s(g29
g113
tp4776
I0
s(g94
g57
tp4777
I0
s(g47
g188
tp4778
I0
s(g14
g33
tp4779
I0
s(g103
g71
tp4780
I0
s(g47
g35
tp4781
I0
s(g24
g135
tp4782
I0
s(g30
g81
tp4783
I0
s(g135
g39
tp4784
I0
s(g17
g94
tp4785
I0
s(g6
g43
tp4786
I0
s(g81
g115
tp4787
I0
s(g17
g105
tp4788
I0
s(g69
g127
tp4789
I0
s(g19
g14
tp4790
I0
s(g29
g14
tp4791
I0
s(g113
g59
tp4792
I0
s(g43
g79
tp4793
I0
s(g117
g19
tp4794
I0
s(g147
g191
tp4795
I0
s(g45
g51
tp4796
I0
s(g103
g57
tp4797
I0
s(g83
g135
tp4798
I0
s(g117
g17
tp4799
I0
s(g162
g75
tp4800
I0
s(g32
g87
tp4801
I0
s(g45
g79
tp4802
I0
s(g135
g59
tp4803
I0
s(g162
g221
tp4804
I0
s(g93
g77
tp4805
I0
s(g162
g91
tp4806
I0
s(g45
g15
tp4807
I0
s(g99
g107
tp4808
I0
s(g53
g273
tp4809
I0
s(g273
g113
tp4810
I0
s(g97
g140
tp4811
I0
s(g87
g2
tp4812
I0
s(g79
g110
tp4813
I0
s(g19
g47
tp4814
I0
s(g191
g45
tp4815
I0
s(g55
g69
tp4816
I0
s(g110
g83
tp4817
I0
s(g172
g91
tp4818
I0
s(g117
g140
tp4819
I0
s(g77
g14
tp4820
I0
s(g123
g27
tp4821
I0
s(g79
g91
tp4822
I0
s(g86
g81
tp4823
I0
s(g151
g162
tp4824
I0
s(g79
g14
tp4825
I0
s(g8
g75
tp4826
I0
s(g131
g93
tp4827
I0
s(g191
g159
tp4828
I0
s(g29
g66
tp4829
I0
s(g55
g55
tp4830
F0.17808219178082191
s(g103
g53
tp4831
I0
s(g43
g69
tp4832
I0
s(g5
g74
tp4833
I0
s(g2
g20
tp4834
I0
s(g45
g110
tp4835
I0
s(g191
g74
tp4836
I0
s(g67
g79
tp4837
I0
s(g24
g24
tp4838
F0.70300751879699253
s(g145
g172
tp4839
I0
s(g38
g75
tp4840
I0
s(g103
g159
tp4841
I0
s(g162
g2
tp4842
I0
s(g99
g86
tp4843
I0
s(g53
g188
tp4844
I0
s(g33
g77
tp4845
I0
s(g66
g27
tp4846
I0
s(g45
g3
tp4847
I0
s(g47
g115
tp4848
I0
s(g51
g36
tp4849
I0
s(g188
g145
tp4850
I0
s(g45
g33
tp4851
I0
s(g62
g172
tp4852
I0
s(g105
g172
tp4853
I0
s(g103
g32
tp4854
I0
s(g29
g36
tp4855
I0
s(g17
g2
tp4856
I0
s(g103
g86
tp4857
F0.098039215686274508
s(g107
g113
tp4858
I0
s(g49
g51
tp4859
I0
s(g20
g103
tp4860
I0
s(g62
g27
tp4861
I0
s(g83
g81
tp4862
F0.14042553191489363
s(g38
g19
tp4863
I0
s(g59
g131
tp4864
I0
s(g69
g67
tp4865
I0
s(g32
g69
tp4866
F0.36619718309859156
s(g107
g49
tp4867
I0
s(g67
g29
tp4868
I0
s(g66
g33
tp4869
I0
s(g97
g33
tp4870
I0
s(g14
g51
tp4871
I0
s(g117
g221
tp4872
I0
s(g39
g221
tp4873
I0
s(g67
g51
tp4874
I0
s(g38
g30
tp4875
I0
s(g107
g53
tp4876
I0
s(g75
g29
tp4877
I0
s(g140
g93
tp4878
I0
s(g35
g94
tp4879
I0
s(g29
g41
tp4880
I0
s(g14
g79
tp4881
I0
s(g103
g38
tp4882
I0
s(g115
g45
tp4883
I0
s(g87
g273
tp4884
I0
s(g51
g103
tp4885
I0
s(g145
g45
tp4886
I0
s(g135
g135
tp4887
F0.14285714285714285
s(g15
g107
tp4888
I0
s(g57
g11
tp4889
I0
s(g36
g26
tp4890
I0
s(g49
g32
tp4891
I0
s(g67
g221
tp4892
I0
s(g8
g147
tp4893
I0
s(g6
g57
tp4894
I0
s(g5
g8
tp4895
I0
s(g86
g67
tp4896
F0.061855670103092786
s(g24
g6
tp4897
I0
s(g6
g27
tp4898
I0
s(g103
g9
tp4899
I0
s(g8
g151
tp4900
I0
s(g188
g36
tp4901
I0
s(g117
g9
tp4902
I0
s(g24
g39
tp4903
I0
s(g188
g103
tp4904
I0
s(g191
g57
tp4905
I0
s(g147
g5
tp4906
I0
s(g57
g66
tp4907
I0
s(g35
g8
tp4908
I0
s(g49
g115
tp4909
I0
s(g83
g20
tp4910
I0
s(g115
g3
tp4911
I0
s(g62
g19
tp4912
I0
s(g33
g99
tp4913
I0
s(g135
g8
tp4914
I0
s(g17
g17
tp4915
F0.13043478260869565
s(g36
g162
tp4916
I0
s(g188
g30
tp4917
I0
s(g75
g191
tp4918
I0
s(g43
g147
tp4919
I0
s(g115
g110
tp4920
I0
s(g86
g117
tp4921
I0
s(g273
g12
tp4922
I0
s(g12
g26
tp4923
I0
s(g11
g191
tp4924
I0
s(g79
g22
tp4925
I0
s(g127
g140
tp4926
I0
s(g273
g87
tp4927
I0
s(g74
g59
tp4928
I0
s(g145
g191
tp4929
I0
s(g127
g91
tp4930
I0
s(g105
g93
tp4931
I0
s(g8
g113
tp4932
I0
s(g87
g24
tp4933
I0
s(g191
g38
tp4934
I0
s(g221
g29
tp4935
I0
s(g71
g188
tp4936
I0
s(g87
g110
tp4937
I0
s(g55
g51
tp4938
I0
s(g83
g172
tp4939
I0
s(g45
g91
tp4940
I0
s(g191
g24
tp4941
I0
s(g74
g15
tp4942
I0
s(g20
g81
tp4943
I0
s(g2
g86
tp4944
I0
s(g131
g162
tp4945
I0
s(g14
g59
tp4946
I0
s(g135
g81
tp4947
I0
s(g43
g57
tp4948
I0
s(g27
g59
tp4949
I0
s(g8
g14
tp4950
I0
s(g83
g105
tp4951
I0
s(g162
g29
tp4952
I0
s(g32
g131
tp4953
I0
s(g43
g191
tp4954
I0
s(g45
g147
tp4955
I0
s(g75
g5
tp4956
I0
s(g151
g47
tp4957
I0
s(g30
g103
tp4958
I0
s(g110
g74
tp4959
I0
s(g35
g6
tp4960
I0
s(g145
g2
tp4961
I0
s(g62
g123
tp4962
I0
s(g162
g172
tp4963
I0
s(g3
g51
tp4964
I0
s(g27
g20
tp4965
I0
s(g79
g97
tp4966
I0
s(g11
g115
tp4967
I0
s(g94
g67
tp4968
I0
s(g8
g32
tp4969
I0
s(g71
g33
tp4970
I0
s(g15
g14
tp4971
I0
s(g93
g151
tp4972
I0
s(g3
g79
tp4973
I0
s(g91
g12
tp4974
I0
s(g74
g24
tp4975
I0
s(g49
g110
tp4976
I0
s(g273
g162
tp4977
I0
s(g35
g99
tp4978
I0
s(g140
g221
tp4979
I0
s(g172
g49
tp4980
I0
s(g30
g117
tp4981
I0
s(g91
g97
tp4982
I0
s(g74
g45
tp4983
I0
s(g45
g123
tp4984
I0
s(g47
g107
tp4985
I0
s(g71
g19
tp4986
I0
s(g22
g74
tp4987
I0
s(g47
g117
tp4988
I0
s(g3
g127
tp4989
I0
s(g6
g59
tp4990
I0
s(g3
g27
tp4991
I0
s(g47
g11
tp4992
I0
s(g191
g79
tp4993
I0
s(g45
g94
tp4994
I0
s(g43
g115
tp4995
I0
s(g39
g38
tp4996
I0
s(g43
g127
tp4997
I0
s(g27
g35
tp4998
I0
s(g43
g43
tp4999
F0.068965517241379309
s(g55
g131
tp5000
I0
s(g9
g99
tp5001
I0
s(g43
g32
tp5002
I0
s(g117
g57
tp5003
I0
s(g45
g43
tp5004
I0
s(g94
g3
tp5005
I0
s(g103
g35
tp5006
I0
s(g26
g49
tp5007
I0
s(g105
g145
tp5008
I0
s(g69
g2
tp5009
I0
s(g74
g57
tp5010
I0
s(g221
g147
tp5011
I0
s(g51
g55
tp5012
I0
s(g110
g38
tp5013
I0
s(g30
g131
tp5014
I0
s(g87
g93
tp5015
I0
s(g43
g53
tp5016
I0
s(g77
g22
tp5017
I0
s(g9
g24
tp5018
I0
s(g97
g159
tp5019
I0
s(g87
g9
tp5020
I0
s(g140
g273
tp5021
I0
s(g79
g15
tp5022
I0
s(g74
g12
tp5023
I0
s(g55
g35
tp5024
I0
s(g103
g45
tp5025
I0
s(g188
g172
tp5026
I0
s(g14
g113
tp5027
I0
s(g32
g77
tp5028
I0
s(g30
g35
tp5029
I0
s(g87
g77
tp5030
I0
s(g77
g2
tp5031
I0
s(g131
g2
tp5032
I0
s(g41
g91
tp5033
I0
s(g8
g41
tp5034
I0
s(g191
g127
tp5035
I0
s(g191
g221
tp5036
I0
s(g39
g83
tp5037
I0
s(g113
g17
tp5038
I0
s(g97
g188
tp5039
I0
s(g87
g3
tp5040
I0
s(g162
g27
tp5041
I0
s(g145
g115
tp5042
I0
s(g127
g159
tp5043
I0
s(g147
g147
tp5044
F0.171875
s(g30
g5
tp5045
I0
s(g24
g99
tp5046
I0
s(g9
g91
tp5047
I0
s(g36
g93
tp5048
I0
s(g172
g6
tp5049
I0
s(g59
g3
tp5050
I0
s(g221
g162
tp5051
I0
s(g103
g113
tp5052
I0
s(g79
g105
tp5053
I0
s(g97
g20
tp5054
I0
s(g59
g81
tp5055
I0
s(g3
g22
tp5056
I0
s(g15
g47
tp5057
I0
s(g30
g19
tp5058
I0
s(g47
g5
tp5059
I0
s(g45
g188
tp5060
I0
s(g41
g131
tp5061
I0
s(g3
g43
tp5062
I0
s(g110
g19
tp5063
I0
s(g20
g135
tp5064
I0
s(g147
g221
tp5065
I0
s(g71
g79
tp5066
I0
s(g110
g24
tp5067
I0
s(g53
g36
tp5068
I0
s(g19
g5
tp5069
I0
s(g69
g107
tp5070
I0
s(g71
g51
tp5071
I0
s(g14
g94
tp5072
I0
s(g5
g57
tp5073
I0
s(g11
g59
tp5074
I0
s(g99
g162
tp5075
I0
s(g172
g38
tp5076
I0
s(g38
g36
tp5077
I0
s(g172
g15
tp5078
I0
s(g74
g74
tp5079
I0
s(g188
g131
tp5080
I0
s(g140
g33
tp5081
I0
s(g147
g51
tp5082
I0
s(g24
g107
tp5083
I0
s(g83
g188
tp5084
I0
s(g83
g5
tp5085
I0
s(g43
g26
tp5086
I0
s(g113
g147
tp5087
F0.0065789473684210523
s(g41
g97
tp5088
I0
s(g221
g51
tp5089
I0
s(g127
g20
tp5090
I0
s(g86
g15
tp5091
I0
s(g55
g83
tp5092
I0
s(g3
g26
tp5093
I0
s(g71
g81
tp5094
I0
s(g273
g83
tp5095
I0
s(g66
g53
tp5096
I0
s(g12
g110
tp5097
I0
s(g273
g15
tp5098
I0
s(g273
g105
tp5099
I0
s(g273
g38
tp5100
I0
s(g3
g172
tp5101
I0
s(g105
g71
tp5102
I0
s(g51
g8
tp5103
I0
s(g159
g172
tp5104
I0
s(g159
g94
tp5105
I0
s(g77
g32
tp5106
I0
s(g45
g99
tp5107
I0
s(g3
g35
tp5108
I0
s(g3
g188
tp5109
I0
s(g53
g30
tp5110
I0
s(g26
g45
tp5111
I0
s(g39
g17
tp5112
I0
s(g32
g12
tp5113
I0
s(g81
g49
tp5114
I0
s(g30
g83
tp5115
I0
s(g20
g49
tp5116
I0
s(g115
g35
tp5117
I0
s(g123
g131
tp5118
I0
s(g273
g93
tp5119
I0
s(g131
g123
tp5120
I0
s(g273
g9
tp5121
I0
s(g11
g151
tp5122
I0
s(g47
g83
tp5123
I0
s(g188
g19
tp5124
I0
s(g69
g97
tp5125
I0
s(g59
g103
tp5126
I0
s(g94
g140
tp5127
I0
s(g9
g11
tp5128
I0
s(g107
g67
tp5129
I0
s(g45
g140
tp5130
I0
s(g191
g26
tp5131
I0
s(g151
g91
tp5132
I0
s(g115
g191
tp5133
I0
s(g91
g71
tp5134
I0
s(g9
g151
tp5135
I0
s(g87
g145
tp5136
I0
s(g145
g69
tp5137
I0
s(g8
g35
tp5138
I0
s(g59
g29
tp5139
I0
s(g62
g127
tp5140
I0
s(g36
g172
tp5141
I0
s(g103
g91
tp5142
I0
s(g135
g29
tp5143
I0
s(g93
g36
tp5144
I0
s(g6
g221
tp5145
I0
s(g36
g191
tp5146
I0
s(g75
g45
tp5147
I0
s(g221
g86
tp5148
I0
s(g140
g32
tp5149
F0.12264150943396226
s(g105
g33
tp5150
F1
s(g5
g159
tp5151
I0
s(g115
g145
tp5152
I0
s(g24
g91
tp5153
I0
s(g36
g57
tp5154
I0
s(g71
g159
tp5155
I0
s(g17
g9
tp5156
I0
s(g113
g20
tp5157
I0
s(g74
g22
tp5158
F0.65753424657534243
s(g273
g36
tp5159
I0
s(g74
g30
tp5160
I0
s(g2
g147
tp5161
I0
s(g191
g22
tp5162
I0
s(g123
g62
tp5163
I0
s(g103
g29
tp5164
I0
s(g188
g2
tp5165
I0
s(g41
g93
tp5166
I0
s(g147
g145
tp5167
I0
s(g29
g83
tp5168
I0
s(g20
g191
tp5169
I0
s(g191
g162
tp5170
I0
s(g77
g172
tp5171
I0
s(g35
g131
tp5172
I0
s(g131
g172
tp5173
I0
s(g105
g27
tp5174
I0
s(g87
g159
tp5175
I0
s(g22
g66
tp5176
I0
s(g123
g36
tp5177
I0
s(g45
g86
tp5178
I0
s(g127
g123
tp5179
I0
s(g147
g19
tp5180
I0
s(g273
g41
tp5181
I0
s(g22
g30
tp5182
I0
s(g110
g221
tp5183
I0
s(g19
g6
tp5184
I0
s(g110
g5
tp5185
F0.46368715083798884
s(g83
g71
tp5186
I0
s(g188
g188
tp5187
F0.49431818181818182
s(g115
g151
tp5188
I0
s(g91
g147
tp5189
I0
s(g75
g26
tp5190
I0
s(g20
g55
tp5191
I0
s(g71
g41
tp5192
I0
s(g8
g57
tp5193
I0
s(g45
g145
tp5194
I0
s(g71
g93
tp5195
I0
s(g27
g19
tp5196
F0.125
s(g159
g8
tp5197
I0
s(g99
g45
tp5198
I0
s(g9
g5
tp5199
I0
s(g151
g97
tp5200
I0
s(g110
g66
tp5201
I0
s(g159
g6
tp5202
I0
s(g17
g81
tp5203
I0
s(g41
g87
tp5204
I0
s(g8
g33
tp5205
I0
s(g135
g86
tp5206
I0
s(g147
g35
tp5207
I0
s(g77
g113
tp5208
F0.45989304812834225
s(g191
g94
tp5209
I0
s(g221
g110
tp5210
I0
s(g77
g43
tp5211
I0
s(g5
g69
tp5212
I0
s(g39
g3
tp5213
I0
s(g97
g81
tp5214
I0
s(g33
g66
tp5215
I0
s(g39
g6
tp5216
I0
s(g123
g30
tp5217
I0
s(g27
g75
tp5218
I0
s(g20
g35
tp5219
I0
s(g39
g41
tp5220
I0
s(g26
g135
tp5221
I0
s(g39
g87
tp5222
I0
s(g19
g59
tp5223
I0
s(g15
g12
tp5224
I0
s(g17
g123
tp5225
I0
s(g35
g135
tp5226
I0
s(g14
g8
tp5227
I0
s(g151
g22
tp5228
I0
s(g123
g110
tp5229
I0
s(g147
g3
tp5230
I0
s(g115
g33
tp5231
I0
s(g5
g94
tp5232
I0
s(g49
g97
tp5233
I0
s(g162
g20
tp5234
I0
s(g38
g66
tp5235
I0
s(g32
g59
tp5236
I0
s(g29
g20
tp5237
I0
s(g35
g110
tp5238
I0
s(g36
g15
tp5239
I0
s(g14
g5
tp5240
I0
s(g93
g55
tp5241
I0
s(g151
g273
tp5242
I0
s(g39
g53
tp5243
I0
s(g159
g83
tp5244
I0
s(g19
g3
tp5245
I0
s(g11
g67
tp5246
I0
s(g94
g62
tp5247
I0
s(g87
g33
tp5248
I0
s(g94
g97
tp5249
I0
s(g151
g123
tp5250
I0
s(g59
g59
tp5251
F0.51162790697674421
s(g19
g43
tp5252
I0
s(g49
g49
tp5253
F0.69686411149825789
s(g62
g135
tp5254
I0
s(g24
g59
tp5255
I0
s(g110
g99
tp5256
I0
s(g39
g94
tp5257
I0
s(g75
g14
tp5258
I0
s(g62
g110
tp5259
I0
s(g22
g14
tp5260
I0
s(g30
g41
tp5261
F0.31481481481481483
s(g159
g49
tp5262
I0
s(g69
g47
tp5263
I0
s(g94
g77
tp5264
I0
s(g45
g39
tp5265
I0
s(g55
g87
tp5266
I0
s(g19
g53
tp5267
I0
s(g113
g2
tp5268
I0
s(g151
g35
tp5269
I0
s(g41
g94
tp5270
I0
s(g131
g69
tp5271
I0
s(g55
g8
tp5272
I0
s(g59
g15
tp5273
I0
s(g30
g27
tp5274
I0
s(g67
g67
tp5275
F0.21590909090909091
s(g110
g59
tp5276
I0
s(g36
g2
tp5277
I0
s(g17
g69
tp5278
I0
s(g32
g71
tp5279
I0
s(g75
g127
tp5280
I0
s(g172
g81
tp5281
I0
s(g22
g113
tp5282
I0
s(g74
g221
tp5283
I0
s(g29
g45
tp5284
I0
s(g74
g127
tp5285
I0
s(g71
g94
tp5286
I0
s(g2
g115
tp5287
I0
s(g47
g27
tp5288
I0
s(g77
g3
tp5289
I0
s(g162
g15
tp5290
I0
s(g75
g20
tp5291
I0
s(g162
g103
tp5292
I0
s(g26
g110
tp5293
I0
s(g19
g162
tp5294
I0
s(g26
g30
tp5295
I0
s(g17
g53
tp5296
I0
s(g3
g107
tp5297
F0.48299319727891155
s(g151
g24
tp5298
I0
s(g86
g29
tp5299
I0
s(g107
g39
tp5300
I0
s(g81
g33
tp5301
I0
s(g69
g110
tp5302
I0
s(g127
g55
tp5303
I0
s(g5
g51
tp5304
I0
s(g14
g117
tp5305
I0
s(g51
g145
tp5306
I0
s(g55
g81
tp5307
I0
s(g71
g115
tp5308
I0
s(g221
g11
tp5309
I0
s(g115
g74
tp5310
I0
s(g41
g162
tp5311
I0
s(g17
g43
tp5312
I0
s(g14
g55
tp5313
I0
s(g17
g127
tp5314
I0
s(g221
g140
tp5315
I0
s(g5
g19
tp5316
I0
s(g17
g36
tp5317
I0
s(g131
g43
tp5318
F0.51798561151079137
s(g47
g51
tp5319
I0
s(g36
g91
tp5320
F0.10526315789473684
s(g172
g273
tp5321
I0
s(g94
g159
tp5322
I0
s(g11
g39
tp5323
I0
s(g3
g45
tp5324
I0
s(g83
g79
tp5325
I0
s(g103
g123
tp5326
I0
s(g113
g145
tp5327
I0
s(g43
g5
tp5328
I0
s(g32
g147
tp5329
I0
s(g6
g9
tp5330
I0
s(g36
g75
tp5331
I0
s(g24
g3
tp5332
I0
s(g53
g221
tp5333
I0
s(g35
g75
tp5334
I0
s(g3
g8
tp5335
I0
s(g159
g117
tp5336
I0
s(g39
g26
tp5337
I0
s(g15
g69
tp5338
I0
s(g24
g110
tp5339
I0
s(g188
g29
tp5340
I0
s(g103
g33
tp5341
I0
s(g97
g12
tp5342
I0
s(g38
g12
tp5343
I0
s(g20
g29
tp5344
I0
s(g81
g26
tp5345
I0
s(g191
g41
tp5346
I0
s(g188
g22
tp5347
I0
s(g147
g69
tp5348
F0.25
s(g26
g162
tp5349
I0
s(g221
g55
tp5350
I0
s(g77
g55
tp5351
I0
s(g38
g22
tp5352
I0
s(g35
g19
tp5353
I0
s(g53
g51
tp5354
I0
s(g47
g93
tp5355
I0
s(g135
g221
tp5356
I0
s(g172
g35
tp5357
I0
s(g135
g19
tp5358
I0
s(g11
g107
tp5359
I0
s(g140
g17
tp5360
I0
s(g105
g20
tp5361
I0
s(g99
g79
tp5362
I0
s(g172
g188
tp5363
I0
s(g66
g87
tp5364
I0
s(g11
g147
tp5365
I0
s(g20
g62
tp5366
I0
s(g94
g147
tp5367
I0
s(g75
g107
tp5368
I0
s(g29
g67
tp5369
I0
s(g93
g8
tp5370
I0
s(g30
g45
tp5371
I0
s(g221
g22
tp5372
I0
s(g17
g140
tp5373
I0
s(g5
g39
tp5374
I0
s(g273
g94
tp5375
I0
s(g69
g36
tp5376
F0.13488372093023257
s(g22
g49
tp5377
I0
s(g45
g38
tp5378
I0
s(g71
g35
tp5379
I0
s(g67
g188
tp5380
I0
s(g71
g6
tp5381
I0
s(g62
g188
tp5382
F0.35555555555555557
s(g12
g49
tp5383
I0
s(g91
g79
tp5384
I0
s(g93
g27
tp5385
I0
s(g159
g39
tp5386
I0
s(g67
g172
tp5387
I0
s(g273
g91
tp5388
I0
s(g53
g32
tp5389
I0
s(g2
g103
tp5390
I0
s(g107
g29
tp5391
I0
s(g43
g107
tp5392
I0
s(g19
g55
tp5393
I0
s(g188
g59
tp5394
I0
s(g191
g145
tp5395
I0
s(g20
g110
tp5396
I0
s(g103
g140
tp5397
I0
s(g147
g115
tp5398
I0
s(g172
g172
tp5399
F0.49404761904761907
s(g57
g172
tp5400
I0
s(g27
g53
tp5401
I0
s(g103
g30
tp5402
I0
s(g59
g151
tp5403
I0
s(g62
g11
tp5404
I0
s(g77
g105
tp5405
I0
s(g36
g67
tp5406
I0
s(g29
g87
tp5407
I0
s(g188
g159
tp5408
I0
s(g94
g26
tp5409
I0
s(g2
g29
tp5410
I0
s(g3
g110
tp5411
I0
s(g105
g15
tp5412
I0
s(g159
g36
tp5413
I0
s(g29
g57
tp5414
I0
s(g79
g86
tp5415
I0
s(g27
g32
tp5416
I0
s(g81
g94
tp5417
I0
s(g107
g172
tp5418
I0
s(g145
g221
tp5419
I0
s(g94
g93
tp5420
I0
s(g57
g83
tp5421
I0
s(g57
g30
tp5422
I0
s(g5
g2
tp5423
I0
s(g113
g39
tp5424
I0
s(g135
g9
tp5425
I0
s(g8
g188
tp5426
I0
s(g6
g69
tp5427
I0
s(g11
g20
tp5428
I0
s(g20
g47
tp5429
I0
s(g24
g66
tp5430
I0
s(g6
g2
tp5431
I0
s(g41
g8
tp5432
I0
s(g69
g105
tp5433
I0
s(g38
g17
tp5434
I0
s(g41
g221
tp5435
I0
s(g113
g12
tp5436
I0
s(g41
g127
tp5437
I0
s(g12
g17
tp5438
F0.061946902654867256
s(g41
g273
tp5439
I0
s(g162
g97
tp5440
I0
s(g66
g97
tp5441
I0
s(g8
g131
tp5442
I0
s(g69
g24
tp5443
I0
s(g99
g93
tp5444
I0
s(g12
g69
tp5445
I0
s(g94
g151
tp5446
I0
s(g94
g14
tp5447
I0
s(g191
g51
tp5448
I0
s(g145
g9
tp5449
I0
s(g75
g69
tp5450
I0
s(g11
g14
tp5451
I0
s(g43
g20
tp5452
I0
s(g51
g86
tp5453
I0
s(g273
g75
tp5454
I0
s(g115
g9
tp5455
I0
s(g135
g27
tp5456
I0
s(g53
g67
tp5457
I0
s(g131
g59
tp5458
I0
s(g140
g123
tp5459
I0
s(g39
g69
tp5460
I0
s(g14
g29
tp5461
I0
s(g81
g55
tp5462
I0
s(g140
g87
tp5463
I0
s(g45
g97
tp5464
I0
s(g8
g71
tp5465
I0
s(g74
g71
tp5466
I0
s(g20
g115
tp5467
I0
s(g71
g75
tp5468
I0
s(g55
g162
tp5469
I0
s(g17
g26
tp5470
I0
s(g87
g43
tp5471
I0
s(g49
g159
tp5472
I0
s(g59
g33
tp5473
I0
s(g20
g83
tp5474
I0
s(g15
g151
tp5475
I0
s(g9
g6
tp5476
I0
s(g145
g117
tp5477
I0
s(g47
g47
tp5478
F0.5114942528735632
s(g97
g162
tp5479
I0
s(g103
g103
tp5480
F0.6029411764705882
s(g67
g71
tp5481
I0
s(g172
g51
tp5482
F0.20833333333333334
s(g145
g62
tp5483
I0
s(g67
g69
tp5484
I0
s(g127
g19
tp5485
I0
s(g147
g81
tp5486
I0
s(g32
g93
tp5487
I0
s(g49
g147
tp5488
I0
s(g30
g47
tp5489
I0
s(g41
g79
tp5490
I0
s(g188
g55
tp5491
I0
s(g110
g191
tp5492
I0
s(g87
g53
tp5493
I0
s(g97
g35
tp5494
I0
s(g66
g8
tp5495
I0
s(g26
g123
tp5496
I0
s(g59
g38
tp5497
I0
s(g57
g39
tp5498
I0
s(g172
g62
tp5499
I0
s(g47
g29
tp5500
I0
s(g6
g87
tp5501
I0
s(g191
g20
tp5502
I0
s(g22
g27
tp5503
I0
s(g43
g77
tp5504
I0
s(g49
g145
tp5505
I0
s(g94
g115
tp5506
I0
s(g8
g47
tp5507
I0
s(g51
g20
tp5508
I0
s(g32
g151
tp5509
I0
s(g45
g81
tp5510
I0
s(g35
g49
tp5511
I0
s(g15
g127
tp5512
I0
s(g66
g57
tp5513
I0
s(g147
g79
tp5514
F0.578125
s(g74
g147
tp5515
I0
s(g115
g81
tp5516
I0
s(g151
g113
tp5517
I0
s(g67
g2
tp5518
I0
s(g33
g103
tp5519
I0
s(g97
g19
tp5520
I0
s(g86
g11
tp5521
I0
s(g2
g11
tp5522
I0
s(g81
g14
tp5523
I0
s(g127
g2
tp5524
I0
s(g20
g147
tp5525
I0
s(g20
g5
tp5526
I0
s(g83
g17
tp5527
I0
s(g49
g103
tp5528
I0
s(g93
g6
tp5529
I0
s(g77
g19
tp5530
I0
s(g49
g172
tp5531
I0
s(g86
g140
tp5532
I0
s(g131
g151
tp5533
I0
s(g93
g26
tp5534
I0
s(g97
g145
tp5535
I0
s(g36
g45
tp5536
I0
s(g110
g33
tp5537
I0
s(g3
g36
tp5538
I0
s(g147
g9
tp5539
I0
s(g110
g3
tp5540
I0
s(g66
g20
tp5541
I0
s(g147
g110
tp5542
I0
s(g147
g93
tp5543
I0
s(g75
g74
tp5544
I0
s(g81
g29
tp5545
I0
s(g113
g32
tp5546
I0
s(g12
g32
tp5547
I0
s(g22
g151
tp5548
I0
s(g67
g162
tp5549
I0
s(g30
g75
tp5550
I0
s(g51
g45
tp5551
I0
s(g55
g123
tp5552
I0
s(g273
g6
tp5553
I0
s(g162
g107
tp5554
I0
s(g107
g2
tp5555
I0
s(g147
g66
tp5556
I0
s(g117
g41
tp5557
I0
s(g22
g33
tp5558
I0
s(g86
g83
tp5559
I0
s(g93
g103
tp5560
I0
s(g29
g221
tp5561
I0
s(g91
g41
tp5562
I0
s(g26
g140
tp5563
I0
s(g117
g115
tp5564
I0
s(g19
g19
tp5565
F0.46951219512195119
s(g67
g87
tp5566
I0
s(g2
g162
tp5567
I0
s(g20
g113
tp5568
I0
s(g33
g6
tp5569
I0
s(g140
g131
tp5570
I0
s(g17
g39
tp5571
F0.22826086956521738
s(g159
g75
tp5572
I0
s(g5
g135
tp5573
I0
s(g69
g49
tp5574
I0
s(g151
g5
tp5575
I0
s(g131
g188
tp5576
I0
s(g77
g188
tp5577
I0
s(g86
g127
tp5578
I0
s(g14
g83
tp5579
I0
s(g57
g86
tp5580
I0
s(g27
g6
tp5581
I0
s(g86
g32
tp5582
I0
s(g55
g159
tp5583
I0
s(g221
g105
tp5584
F0.016129032258064516
s(g86
g86
tp5585
F0.58247422680412375
s(g117
g71
tp5586
F0.040000000000000001
s(g159
g19
tp5587
I0
s(g32
g11
tp5588
I0
s(g29
g8
tp5589
I0
s(g55
g135
tp5590
I0
s(g19
g35
tp5591
I0
s(g20
g117
tp5592
I0
s(g32
g117
tp5593
I0
s(g66
g83
tp5594
F0.057142857142857141
s(g107
g115
tp5595
I0
s(g38
g49
tp5596
I0
s(g103
g87
tp5597
I0
s(g22
g26
tp5598
I0
s(g6
g151
tp5599
I0
s(g15
g26
tp5600
I0
s(g39
g19
tp5601
I0
s(g94
g71
tp5602
I0
s(g66
g15
tp5603
I0
s(g188
g113
tp5604
I0
s(g123
g81
tp5605
I0
s(g53
g69
tp5606
I0
s(g221
g24
tp5607
I0
s(g35
g41
tp5608
I0
s(g91
g22
tp5609
I0
s(g36
g188
tp5610
I0
s(g47
g6
tp5611
I0
s(g97
g41
tp5612
I0
s(g12
g19
tp5613
I0
s(g29
g140
tp5614
I0
s(g107
g30
tp5615
I0
s(g140
g62
tp5616
I0
s(g20
g107
tp5617
I0
s(g62
g69
tp5618
I0
s(g26
g36
tp5619
I0
s(g66
g93
tp5620
I0
s(g97
g93
tp5621
I0
s(g140
g115
tp5622
I0
s(g93
g57
tp5623
I0
s(g91
g93
tp5624
I0
s(g53
g62
tp5625
I0
s(g57
g97
tp5626
I0
s(g83
g32
tp5627
I0
s(g55
g145
tp5628
I0
s(g145
g59
tp5629
I0
s(g97
g221
tp5630
I0
s(g67
g115
tp5631
I0
s(g69
g135
tp5632
I0
s(g151
g45
tp5633
I0
s(g99
g11
tp5634
I0
s(g94
g29
tp5635
I0
s(g8
g24
tp5636
I0
s(g47
g191
tp5637
I0
s(g12
g75
tp5638
I0
s(g75
g59
tp5639
I0
s(g5
g45
tp5640
I0
s(g131
g14
tp5641
F0.050359712230215826
s(g38
g79
tp5642
I0
s(g3
g15
tp5643
I0
s(g188
g151
tp5644
I0
s(g27
g33
tp5645
I0
s(g12
g66
tp5646
I0
s(g74
g67
tp5647
I0
s(g2
g30
tp5648
I0
s(g221
g57
tp5649
I0
s(g147
g103
tp5650
I0
s(g147
g188
tp5651
I0
s(g2
g66
tp5652
I0
s(g22
g110
tp5653
I0
s(g22
g8
tp5654
I0
s(g20
g30
tp5655
F0.29032258064516131
s(g77
g135
tp5656
I0
s(g117
g14
tp5657
I0
s(g39
g14
tp5658
I0
s(g140
g77
tp5659
I0
s(g12
g131
tp5660
I0
s(g79
g135
tp5661
I0
s(g273
g66
tp5662
I0
s(g91
g35
tp5663
I0
s(g151
g55
tp5664
I0
s(g57
g49
tp5665
I0
s(g91
g30
tp5666
F1
s(g273
g30
tp5667
I0
s(g15
g39
tp5668
I0
s(g107
g127
tp5669
I0
s(g45
g30
tp5670
I0
s(g45
g83
tp5671
I0
s(g113
g66
tp5672
I0
s(g97
g32
tp5673
I0
s(g39
g20
tp5674
I0
s(g110
g47
tp5675
I0
s(g273
g135
tp5676
I0
s(g35
g39
tp5677
I0
s(g113
g71
tp5678
I0
s(g3
g113
tp5679
I0
s(g147
g74
tp5680
I0
s(g74
g117
tp5681
F0.34246575342465752
s(g6
g53
tp5682
I0
s(g62
g36
tp5683
I0
s(g27
g39
tp5684
I0
s(g8
g38
tp5685
I0
s(g19
g93
tp5686
I0
s(g29
g93
tp5687
I0
s(g127
g5
tp5688
I0
s(g75
g32
tp5689
I0
s(g45
g172
tp5690
I0
s(g33
g19
tp5691
I0
s(g77
g151
tp5692
I0
s(g127
g29
tp5693
I0
s(g8
g49
tp5694
I0
s(g19
g41
tp5695
I0
s(g12
g117
tp5696
I0
s(g9
g131
tp5697
I0
s(g2
g127
tp5698
I0
s(g123
g67
tp5699
I0
s(g57
g188
tp5700
I0
s(g127
g22
tp5701
I0
s.