(dp1
((I8
I5
tp2
(I3
I3
tp3
tp4
I0
s((I4
I10
tp5
(I10
I5
tp6
tp7
I0
s((I9
I4
tp8
(I8
I6
tp9
tp10
I0
s((I1
I10
tp11
(I8
I2
tp12
tp13
I0
s((I7
I3
tp14
(I7
I5
tp15
tp16
I0
s((I8
I10
tp17
(I8
I8
tp18
tp19
I0
s((I3
I11
tp20
(I7
I2
tp21
tp22
I0
s((I8
I12
tp23
(I4
I3
tp24
tp25
I0
s((I3
I5
tp26
(I10
I8
tp27
tp28
I0
s(g6
(I0
I6
tp29
tp30
I0
s((I6
I11
tp31
(I3
I12
tp32
tp33
I0
s((I5
I2
tp34
g29
tp35
I0
s((I8
I4
tp36
g23
tp37
I0
s((I5
I10
tp38
(I0
I8
tp39
tp40
I0
s((I3
I4
tp41
(I3
I9
tp42
tp43
I0
s((I5
I12
tp44
(I8
I3
tp45
tp46
I0
s((I1
I8
tp47
g17
tp48
I0
s((I1
I9
tp49
(I3
I6
tp50
tp51
I0
s(g21
(I1
I6
tp52
tp53
I0
s(g42
(I8
I13
tp54
tp55
I0
s(g23
(I10
I10
tp56
tp57
I0
s(g21
(I6
I10
tp58
tp59
I0
s((I5
I11
tp60
g26
tp61
I0
s(g45
(I3
I7
tp62
tp63
I0
s((I9
I5
tp64
(I1
I7
tp65
tp66
I0
s((I11
I8
tp67
(I5
I13
tp68
tp69
I0
s(g29
(I8
I9
tp70
tp71
I0
s(g23
g52
tp72
I0
s(g41
g36
tp73
I0
s((I2
I4
tp74
g36
tp75
I0
s((I7
I13
tp76
g45
tp77
I0
s((I0
I7
tp78
g23
tp79
I0
s(g29
(I11
I7
tp80
tp81
I0
s(g8
(I6
I2
tp82
tp83
I0
s(g56
(I6
I5
tp84
tp85
I0
s(g41
g23
tp86
I0
s((I3
I8
tp87
g11
tp88
I0
s((I6
I12
tp89
(I4
I13
tp90
tp91
I0
s(g31
g5
tp92
I0
s(g42
g60
tp93
I0
s(g90
(I6
I13
tp94
tp95
I0
s(g24
(I0
I5
tp96
tp97
I0
s(g6
g2
tp98
I0
s((I2
I10
tp99
g89
tp100
I0
s(g32
g3
tp101
I0
s(g47
g39
tp102
I0
s((I11
I6
tp103
g67
tp104
I0
s(g89
(I3
I13
tp105
tp106
I0
s(g74
g14
tp107
I0
s((I4
I5
tp108
(I4
I12
tp109
tp110
I0
s((I11
I9
tp111
g80
tp112
I0
s((I4
I11
tp113
g68
tp114
I0
s((I2
I11
tp115
(I11
I10
tp116
tp117
I0
s((I9
I10
tp118
g45
tp119
I0
s(g60
g113
tp120
I0
s(g87
g78
tp121
I0
s(g36
g21
tp122
I0
s((I1
I5
tp123
(I9
I11
tp124
tp125
I0
s(g52
(I7
I11
tp126
tp127
I0
s(g109
g109
tp128
F0.73737373737373735
s((I6
I3
tp129
g41
tp130
I0
s(g23
g84
tp131
I0
s(g2
g96
tp132
I0
s(g105
g41
tp133
I0
s(g67
(I0
I9
tp134
tp135
I0
s(g89
g113
tp136
I0
s(g80
g68
tp137
I0
s(g94
g56
tp138
I0
s(g76
g9
tp139
I0
s(g124
g118
tp140
I0
s(g62
g12
tp141
I0
s(g58
g6
tp142
I0
s(g17
g70
tp143
F0.40562248995983935
s(g126
g76
tp144
I0
s(g96
g38
tp145
I0
s(g70
g60
tp146
I0
s(g82
g67
tp147
I0
s(g94
g24
tp148
I0
s(g60
g56
tp149
I0
s(g109
g116
tp150
I0
s(g23
g41
tp151
I0
s(g20
g96
tp152
I0
s(g9
g50
tp153
I0
s(g2
g134
tp154
I0
s(g108
g11
tp155
I0
s(g49
g49
tp156
F0.41428571428571431
s(g15
g87
tp157
I0
s(g96
g6
tp158
I0
s(g38
g20
tp159
I0
s(g103
g2
tp160
I0
s(g32
g29
tp161
I0
s(g68
g34
tp162
I0
s(g31
(I7
I12
tp163
tp164
I0
s(g8
g74
tp165
I0
s(g62
g67
tp166
I0
s(g70
g3
tp167
I0
s(g38
g15
tp168
I0
s(g8
g94
tp169
I0
s(g44
g89
tp170
I0
s(g12
g9
tp171
I0
s((I8
I11
tp172
(I2
I5
tp173
tp174
I0
s(g27
g84
tp175
I0
s(g80
g5
tp176
I0
s(g108
g78
tp177
I0
s(g45
g18
tp178
I0
s(g123
g103
tp179
I0
s(g108
g52
tp180
I0
s(g52
g44
tp181
I0
s(g60
g74
tp182
I0
s(g14
g9
tp183
I0
s(g129
g111
tp184
I0
s(g31
g116
tp185
I0
s(g54
g82
tp186
I0
s(g45
g5
tp187
I0
s(g47
g62
tp188
I0
s(g115
g56
tp189
I0
s(g6
g44
tp190
I0
s(g105
g124
tp191
I0
s(g80
g163
tp192
I0
s(g84
g172
tp193
I0
s(g134
g58
tp194
I0
s(g29
g12
tp195
I0
s(g23
g39
tp196
I0
s(g6
g58
tp197
I0
s(g173
g58
tp198
I0
s(g115
(I3
I10
tp199
tp200
I0
s(g8
g36
tp201
I0
s(g126
(I10
I9
tp202
tp203
I0
s(g64
g96
tp204
I0
s(g78
g27
tp205
I0
s(g44
g52
tp206
I0
s(g42
g65
tp207
I0
s(g99
g15
tp208
I0
s(g8
g52
tp209
I0
s(g44
(I8
I7
tp210
tp211
I0
s(g103
g70
tp212
I0
s(g84
g42
tp213
I0
s((I10
I6
tp214
g99
tp215
I0
s(g5
g58
tp216
I0
s(g163
g115
tp217
I0
s((I10
I7
tp218
g14
tp219
I0
s(g123
g84
tp220
I0
s(g9
g64
tp221
I0
s(g163
g199
tp222
I0
s(g80
g172
tp223
I0
s(g65
g54
tp224
I0
s(g90
g21
tp225
I0
s(g172
g64
tp226
I0
s(g214
g18
tp227
I0
s(g126
g41
tp228
I0
s(g3
g113
tp229
I0
s(g64
g90
tp230
I0
s(g78
g20
tp231
I0
s(g163
g113
tp232
I0
s(g62
g115
tp233
I0
s(g80
g60
tp234
I0
s(g124
g14
tp235
I0
s(g163
g45
tp236
I0
s(g105
g68
tp237
I0
s(g44
g15
tp238
I0
s(g32
g17
tp239
I0
s((I5
I3
tp240
(I4
I2
tp241
tp242
I0
s(g52
g99
tp243
I0
s(g65
g60
tp244
I0
s(g27
g126
tp245
I0
s(g41
g199
tp246
I0
s(g52
g14
tp247
I0
s(g27
g123
tp248
I0
s(g89
g60
tp249
I0
s(g67
g23
tp250
I0
s(g65
g68
tp251
I0
s(g76
g3
tp252
I0
s(g2
g218
tp253
I0
s(g60
g82
tp254
I0
s(g123
g50
tp255
I0
s(g31
g39
tp256
I0
s(g3
g58
tp257
I0
s(g27
g17
tp258
I0
s(g105
g17
tp259
I0
s(g89
g17
tp260
I0
s(g31
g90
tp261
I0
s(g124
g24
tp262
I0
s(g56
g14
tp263
I0
s(g9
g241
tp264
I0
s(g60
g47
tp265
I0
s(g27
g42
tp266
I0
s(g199
(I7
I10
tp267
tp268
I0
s(g214
g199
tp269
I0
s(g214
g50
tp270
I0
s(g8
g54
tp271
I0
s(g20
g129
tp272
I0
s(g111
g49
tp273
I0
s(g8
g96
tp274
I0
s(g74
g49
tp275
I0
s((I5
I5
tp276
g108
tp277
F0.52406417112299464
s(g124
g20
tp278
I0
s(g173
g60
tp279
I0
s(g134
g8
tp280
I0
s(g23
g210
tp281
I0
s(g49
g64
tp282
I0
s(g17
g17
tp283
F0.59437751004016059
s(g67
g14
tp284
I0
s(g90
g96
tp285
I0
s(g32
g6
tp286
I0
s(g70
g109
tp287
I0
s(g32
g74
tp288
I0
s(g68
g5
tp289
I0
s(g65
g134
tp290
I0
s(g134
g3
tp291
I0
s(g89
g56
tp292
I0
s(g214
g54
tp293
I0
s(g173
g17
tp294
I0
s(g14
g14
tp295
F0.75920679886685549
s(g78
g58
tp296
I0
s(g29
g74
tp297
I0
s(g31
g49
tp298
I0
s(g172
g47
tp299
I0
s(g173
g54
tp300
I0
s(g49
g89
tp301
I0
s(g240
g11
tp302
I0
s(g116
g64
tp303
I0
s(g3
g50
tp304
I0
s(g2
g126
tp305
I0
s(g18
g89
tp306
I0
s(g202
g115
tp307
I0
s(g45
g21
tp308
I0
s(g172
g82
tp309
I0
s(g111
g74
tp310
I0
s(g89
g2
tp311
I0
s(g17
g80
tp312
I0
s(g108
g103
tp313
I0
s(g14
g39
tp314
I0
s(g45
g17
tp315
I0
s(g42
g94
tp316
I0
s(g89
g218
tp317
I0
s(g115
g3
tp318
I0
s(g11
g6
tp319
I0
s(g129
g123
tp320
I0
s(g11
g82
tp321
I0
s(g64
g38
tp322
I0
s(g9
g240
tp323
I0
s(g18
g54
tp324
I0
s(g23
g202
tp325
I0
s(g241
g199
tp326
I0
s(g123
g56
tp327
I0
s(g129
g163
tp328
I0
s(g56
g47
tp329
I0
s(g41
g76
tp330
I0
s(g2
g99
tp331
I0
s(g32
g62
tp332
I0
s(g240
g202
tp333
I0
s(g80
g111
tp334
I0
s(g173
g42
tp335
I0
s(g41
g15
tp336
I0
s(g58
g78
tp337
I0
s(g74
g26
tp338
I0
s(g56
g23
tp339
I0
s(g39
g129
tp340
I0
s(g23
g276
tp341
I0
s(g70
g49
tp342
I0
s(g276
g11
tp343
I0
s(g99
g173
tp344
I0
s(g90
g50
tp345
I0
s(g17
g2
tp346
I0
s(g32
g89
tp347
I0
s(g109
g47
tp348
I0
s(g76
g202
tp349
I0
s(g134
g34
tp350
I0
s(g18
g118
tp351
I0
s(g87
g8
tp352
I0
s(g218
g124
tp353
I0
s(g76
g96
tp354
I0
s(g80
g84
tp355
I0
s(g18
g5
tp356
I0
s(g34
g31
tp357
I0
s(g32
g214
tp358
I0
s(g42
g163
tp359
I0
s(g99
g210
tp360
I0
s(g118
g267
tp361
I0
s(g27
g108
tp362
I0
s(g74
g38
tp363
I0
s(g105
g52
tp364
I0
s(g94
g64
tp365
I0
s(g44
g103
tp366
I0
s(g123
g60
tp367
I0
s(g129
g80
tp368
I0
s(g103
g76
tp369
I0
s(g105
g267
tp370
I0
s(g108
g126
tp371
I0
s(g42
g36
tp372
I0
s(g134
g18
tp373
I0
s(g24
g123
tp374
I0
s(g241
g62
tp375
I0
s(g11
g94
tp376
I0
s(g103
g64
tp377
I0
s(g60
g173
tp378
I0
s(g74
g15
tp379
I0
s(g56
g105
tp380
I0
s(g124
g9
tp381
I0
s(g134
g115
tp382
I0
s(g5
g172
tp383
I0
s(g17
g116
tp384
I0
s(g87
g202
tp385
I0
s(g96
g26
tp386
I0
s(g12
g23
tp387
I0
s(g52
g202
tp388
I0
s(g64
g115
tp389
I0
s(g34
g80
tp390
I0
s(g26
g49
tp391
I0
s(g199
g67
tp392
I0
s(g276
g26
tp393
I0
s(g65
g65
tp394
F0.49693251533742333
s(g94
g82
tp395
I0
s(g5
g2
tp396
I0
s(g163
g34
tp397
I0
s(g11
g27
tp398
I0
s(g11
g214
tp399
I0
s(g173
g109
tp400
I0
s(g65
g24
tp401
I0
s(g240
g129
tp402
F0.5117647058823529
s(g34
g267
tp403
I0
s(g105
g65
tp404
I0
s(g276
g67
tp405
I0
s(g199
g26
tp406
I0
s(g58
g84
tp407
I0
s(g118
g210
tp408
I0
s(g54
g115
tp409
I0
s(g116
g123
tp410
I0
s(g64
g50
tp411
I0
s(g96
g126
tp412
I0
s(g54
g78
tp413
I0
s(g32
g94
tp414
I0
s(g103
g24
tp415
I0
s(g76
g23
tp416
I0
s(g80
g64
tp417
I0
s(g11
g276
tp418
I0
s(g34
g6
tp419
I0
s(g218
g15
tp420
I0
s(g70
g99
tp421
I0
s(g172
g65
tp422
I0
s(g84
g9
tp423
I0
s(g38
g96
tp424
I0
s(g103
g134
tp425
I0
s(g26
g214
tp426
I0
s(g111
g29
tp427
I0
s(g15
g15
tp428
F0.4702702702702703
s(g89
g240
tp429
I0
s(g163
g50
tp430
I0
s(g173
g84
tp431
I0
s(g8
g218
tp432
I0
s(g90
g52
tp433
I0
s(g17
g202
tp434
I0
s(g126
g49
tp435
I0
s(g89
g76
tp436
I0
s(g80
g94
tp437
I0
s(g47
g99
tp438
I0
s(g108
g202
tp439
I0
s(g105
g129
tp440
I0
s(g80
g11
tp441
I0
s(g34
g214
tp442
I0
s(g26
g109
tp443
I0
s(g124
g38
tp444
I0
s(g129
g116
tp445
I0
s(g84
g31
tp446
I0
s(g115
g54
tp447
I0
s(g105
g240
tp448
I0
s(g47
g31
tp449
I0
s(g116
g99
tp450
I0
s(g103
g32
tp451
I0
s(g45
g54
tp452
I0
s(g218
g129
tp453
I0
s(g84
g99
tp454
I0
s(g50
g267
tp455
I0
s(g45
g96
tp456
I0
s(g199
g49
tp457
I0
s(g41
g27
tp458
I0
s(g68
g111
tp459
I0
s(g62
g202
tp460
I0
s(g108
g27
tp461
I0
s(g103
g50
tp462
I0
s(g172
g50
tp463
I0
s(g124
g109
tp464
I0
s(g90
g113
tp465
I0
s(g173
g240
tp466
I0
s(g202
g89
tp467
I0
s(g94
g26
tp468
I0
s(g124
g62
tp469
I0
s(g87
g89
tp470
I0
s(g42
g27
tp471
I0
s(g8
g134
tp472
I0
s(g111
g103
tp473
I0
s(g24
g80
tp474
I0
s(g108
g276
tp475
I0
s(g64
g54
tp476
I0
s(g84
g52
tp477
I0
s(g49
g74
tp478
I0
s(g65
g27
tp479
I0
s(g17
g96
tp480
I0
s(g23
g116
tp481
I0
s(g15
g67
tp482
I0
s(g84
g80
tp483
I0
s(g44
g42
tp484
I0
s(g96
g84
tp485
I0
s(g26
g56
tp486
I0
s(g90
g26
tp487
I0
s(g70
g21
tp488
I0
s(g129
g39
tp489
I0
s(g173
g21
tp490
I0
s(g29
g64
tp491
I0
s(g9
g96
tp492
I0
s(g210
g27
tp493
I0
s(g68
g58
tp494
I0
s(g18
g109
tp495
I0
s(g123
g105
tp496
I0
s(g99
g36
tp497
I0
s(g14
g38
tp498
I0
s(g87
g27
tp499
I0
s(g50
g23
tp500
I0
s(g39
g31
tp501
I0
s(g276
g5
tp502
I0
s(g49
g109
tp503
I0
s(g80
g210
tp504
I0
s(g210
g90
tp505
I0
s(g105
g241
tp506
I0
s(g27
g76
tp507
I0
s(g82
g96
tp508
I0
s(g47
g68
tp509
I0
s(g129
g70
tp510
I0
s(g116
g240
tp511
I0
s(g99
g84
tp512
I0
s(g27
g41
tp513
I0
s(g115
g34
tp514
I0
s(g38
g23
tp515
I0
s(g90
g129
tp516
I0
s(g9
g21
tp517
I0
s(g111
g84
tp518
I0
s(g39
g65
tp519
I0
s(g129
g103
tp520
I0
s(g84
g84
tp521
F0.5847457627118644
s(g12
g20
tp522
I0
s(g21
g202
tp523
I0
s(g214
g15
tp524
I0
s(g267
g113
tp525
I0
s(g218
g126
tp526
I0
s(g111
g32
tp527
I0
s(g267
g26
tp528
I0
s(g45
g65
tp529
I0
s(g5
g84
tp530
I0
s(g103
g90
tp531
I0
s(g82
g56
tp532
I0
s(g41
g218
tp533
I0
s(g9
g68
tp534
I0
s(g21
g29
tp535
I0
s(g78
g173
tp536
I0
s(g50
g5
tp537
I0
s(g18
g108
tp538
I0
s(g58
g199
tp539
I0
s(g199
g214
tp540
I0
s(g78
g103
tp541
I0
s(g267
g115
tp542
I0
s(g42
g172
tp543
I0
s(g214
g115
tp544
I0
s(g29
g276
tp545
I0
s(g23
g54
tp546
I0
s(g34
g115
tp547
I0
s(g172
g12
tp548
I0
s(g123
g82
tp549
I0
s(g109
g123
tp550
I0
s(g126
g23
tp551
I0
s(g82
g89
tp552
I0
s(g49
g90
tp553
I0
s(g124
g41
tp554
I0
s(g38
g218
tp555
I0
s(g47
g134
tp556
I0
s(g70
g2
tp557
I0
s(g116
g94
tp558
I0
s(g218
g54
tp559
I0
s(g111
g172
tp560
I0
s(g38
g2
tp561
I0
s(g6
g31
tp562
I0
s(g42
g32
tp563
I0
s(g23
g241
tp564
I0
s(g113
g12
tp565
I0
s(g47
g94
tp566
I0
s(g27
g78
tp567
I0
s(g31
g84
tp568
I0
s(g18
g50
tp569
I0
s(g210
g34
tp570
I0
s(g126
g94
tp571
I0
s(g32
g172
tp572
I0
s(g74
g67
tp573
I0
s(g108
g84
tp574
I0
s(g58
g173
tp575
I0
s(g210
g74
tp576
I0
s(g240
g96
tp577
I0
s(g17
g49
tp578
I0
s(g99
g11
tp579
F1
s(g199
g64
tp580
I0
s(g64
g47
tp581
I0
s(g199
g70
tp582
I0
s(g31
g36
tp583
I0
s(g3
g65
tp584
I0
s(g41
g241
tp585
I0
s(g210
g18
tp586
I0
s(g62
g58
tp587
I0
s(g68
g17
tp588
I0
s(g172
g60
tp589
I0
s(g56
g38
tp590
I0
s(g41
g5
tp591
I0
s(g96
g276
tp592
I0
s(g45
g78
tp593
I0
s(g36
g2
tp594
I0
s(g172
g3
tp595
I0
s(g54
g38
tp596
I0
s(g70
g173
tp597
I0
s(g89
g267
tp598
I0
s(g36
g80
tp599
I0
s(g210
g52
tp600
I0
s(g44
g115
tp601
I0
s(g210
g78
tp602
I0
s(g5
g31
tp603
I0
s(g47
g109
tp604
I0
s(g54
g6
tp605
I0
s(g50
g27
tp606
I0
s(g118
g134
tp607
I0
s(g108
g3
tp608
I0
s(g173
g47
tp609
I0
s(g65
g42
tp610
I0
s(g29
g76
tp611
I0
s(g172
g54
tp612
I0
s(g54
g124
tp613
I0
s(g210
g115
tp614
I0
s(g134
g118
tp615
I0
s(g27
g29
tp616
I0
s(g6
g27
tp617
I0
s(g11
g172
tp618
I0
s(g34
g134
tp619
I0
s(g44
g240
tp620
I0
s(g20
g17
tp621
I0
s(g172
g29
tp622
I0
s(g103
g6
tp623
I0
s(g50
g90
tp624
I0
s(g42
g103
tp625
I0
s(g118
g18
tp626
I0
s(g65
g267
tp627
I0
s(g20
g214
tp628
I0
s(g9
g172
tp629
I0
s(g6
g90
tp630
I0
s(g94
g8
tp631
I0
s(g267
g123
tp632
I0
s(g26
g3
tp633
I0
s(g17
g29
tp634
I0
s(g54
g26
tp635
I0
s(g99
g87
tp636
I0
s(g34
g18
tp637
I0
s(g26
g58
tp638
I0
s(g24
g24
tp639
F0.45283018867924529
s(g99
g199
tp640
I0
s(g116
g210
tp641
I0
s(g54
g50
tp642
I0
s(g129
g82
tp643
I0
s(g38
g80
tp644
I0
s(g15
g58
tp645
I0
s(g111
g56
tp646
F0.59090909090909094
s(g11
g32
tp647
I0
s(g126
g14
tp648
I0
s(g67
g123
tp649
I0
s(g5
g202
tp650
I0
s(g47
g241
tp651
I0
s(g89
g47
tp652
I0
s(g70
g8
tp653
I0
s(g126
g96
tp654
I0
s(g17
g42
tp655
I0
s(g9
g94
tp656
I0
s(g29
g56
tp657
I0
s(g68
g9
tp658
I0
s(g12
g109
tp659
I0
s(g199
g11
tp660
I0
s(g65
g118
tp661
I0
s(g111
g31
tp662
I0
s(g94
g115
tp663
I0
s(g109
g241
tp664
I0
s(g103
g49
tp665
I0
s(g105
g14
tp666
I0
s(g32
g68
tp667
I0
s(g113
g123
tp668
I0
s(g47
g34
tp669
I0
s(g90
g89
tp670
I0
s(g267
g172
tp671
I0
s(g134
g76
tp672
I0
s(g163
g52
tp673
I0
s(g118
g14
tp674
I0
s(g123
g70
tp675
I0
s(g38
g199
tp676
I0
s(g58
g108
tp677
I0
s(g105
g103
tp678
I0
s(g123
g9
tp679
I0
s(g68
g113
tp680
I0
s(g218
g70
tp681
I0
s(g74
g90
tp682
I0
s(g90
g214
tp683
I0
s(g26
g163
tp684
I0
s(g172
g123
tp685
I0
s(g84
g111
tp686
I0
s(g129
g84
tp687
I0
s(g50
g8
tp688
I0
s(g17
g78
tp689
I0
s(g27
g118
tp690
I0
s(g123
g173
tp691
F0.15981735159817351
s(g45
g3
tp692
I0
s(g129
g29
tp693
I0
s(g68
g62
tp694
I0
s(g23
g124
tp695
I0
s(g80
g82
tp696
I0
s(g68
g218
tp697
I0
s(g108
g94
tp698
I0
s(g202
g241
tp699
I0
s(g41
g11
tp700
I0
s(g76
g90
tp701
I0
s(g34
g113
tp702
I0
s(g210
g87
tp703
I0
s(g103
g94
tp704
I0
s(g115
g90
tp705
I0
s(g210
g202
tp706
I0
s(g12
g172
tp707
I0
s(g111
g116
tp708
I0
s(g89
g82
tp709
I0
s(g111
g241
tp710
I0
s(g172
g41
tp711
I0
s(g18
g103
tp712
I0
s(g89
g65
tp713
I0
s(g99
g116
tp714
I0
s(g199
g134
tp715
I0
s(g241
g5
tp716
I0
s(g14
g27
tp717
I0
s(g45
g29
tp718
I0
s(g9
g103
tp719
I0
s(g26
g78
tp720
I0
s(g80
g54
tp721
I0
s(g240
g29
tp722
I0
s(g29
g116
tp723
I0
s(g123
g62
tp724
I0
s(g116
g68
tp725
I0
s(g214
g267
tp726
I0
s(g202
g84
tp727
I0
s(g50
g2
tp728
I0
s(g202
g126
tp729
I0
s(g34
g26
tp730
I0
s(g14
g89
tp731
I0
s(g89
g54
tp732
I0
s(g113
g67
tp733
I0
s(g123
g8
tp734
I0
s(g52
g67
tp735
I0
s(g50
g17
tp736
I0
s(g31
g27
tp737
I0
s(g218
g76
tp738
I0
s(g3
g11
tp739
I0
s(g44
g64
tp740
I0
s(g39
g202
tp741
I0
s(g38
g113
tp742
I0
s(g210
g11
tp743
I0
s(g34
g70
tp744
I0
s(g173
g65
tp745
I0
s(g123
g76
tp746
I0
s(g210
g60
tp747
I0
s(g103
g56
tp748
I0
s(g50
g103
tp749
I0
s(g32
g42
tp750
I0
s(g115
g109
tp751
I0
s(g267
g18
tp752
I0
s(g38
g116
tp753
I0
s(g29
g49
tp754
I0
s(g240
g118
tp755
I0
s(g276
g15
tp756
I0
s(g38
g8
tp757
I0
s(g17
g31
tp758
I0
s(g17
g109
tp759
I0
s(g31
g276
tp760
I0
s(g111
g124
tp761
I0
s(g90
g60
tp762
I0
s(g90
g87
tp763
I0
s(g9
g84
tp764
I0
s(g124
g124
tp765
F0.5855855855855856
s(g23
g9
tp766
I0
s(g210
g54
tp767
I0
s(g74
g6
tp768
I0
s(g44
g80
tp769
I0
s(g70
g9
tp770
I0
s(g44
g41
tp771
I0
s(g124
g87
tp772
I0
s(g82
g29
tp773
I0
s(g70
g5
tp774
I0
s(g267
g67
tp775
I0
s(g214
g67
tp776
I0
s(g218
g210
tp777
I0
s(g173
g50
tp778
I0
s(g68
g129
tp779
I0
s(g240
g9
tp780
I0
s(g52
g64
tp781
I0
s(g15
g118
tp782
I0
s(g124
g56
tp783
I0
s(g18
g45
tp784
I0
s(g70
g241
tp785
I0
s(g60
g31
tp786
F1
s(g89
g214
tp787
I0
s(g241
g18
tp788
I0
s(g103
g111
tp789
I0
s(g113
g34
tp790
I0
s(g115
g58
tp791
I0
s(g105
g111
tp792
I0
s(g109
g96
tp793
I0
s(g134
g113
tp794
I0
s(g54
g67
tp795
I0
s(g3
g20
tp796
I0
s(g8
g12
tp797
I0
s(g241
g23
tp798
I0
s(g115
g12
tp799
I0
s(g74
g80
tp800
I0
s(g6
g218
tp801
I0
s(g14
g74
tp802
I0
s(g14
g6
tp803
I0
s(g52
g89
tp804
I0
s(g29
g199
tp805
I0
s(g17
g38
tp806
I0
s(g89
g89
tp807
F0.49006622516556292
s(g84
g29
tp808
I0
s(g111
g105
tp809
I0
s(g118
g58
tp810
I0
s(g62
g23
tp811
I0
s(g56
g18
tp812
I0
s(g42
g50
tp813
I0
s(g41
g173
tp814
I0
s(g94
g103
tp815
I0
s(g5
g49
tp816
I0
s(g44
g70
tp817
I0
s(g58
g116
tp818
I0
s(g15
g20
tp819
I0
s(g214
g2
tp820
I0
s(g129
g6
tp821
I0
s(g99
g90
tp822
I0
s(g199
g34
tp823
I0
s(g14
g240
tp824
I0
s(g31
g9
tp825
I0
s(g78
g38
tp826
I0
s(g20
g70
tp827
I0
s(g124
g44
tp828
I0
s(g90
g47
tp829
I0
s(g163
g62
tp830
I0
s(g29
g52
tp831
I0
s(g82
g9
tp832
I0
s(g11
g14
tp833
I0
s(g60
g67
tp834
I0
s(g124
g82
tp835
I0
s(g12
g118
tp836
I0
s(g129
g267
tp837
I0
s(g78
g5
tp838
I0
s(g9
g31
tp839
I0
s(g47
g14
tp840
I0
s(g18
g240
tp841
I0
s(g99
g12
tp842
I0
s(g129
g56
tp843
I0
s(g3
g199
tp844
I0
s(g111
g163
tp845
I0
s(g218
g94
tp846
I0
s(g56
g199
tp847
I0
s(g6
g12
tp848
I0
s(g36
g108
tp849
I0
s(g241
g124
tp850
I0
s(g56
g42
tp851
I0
s(g276
g8
tp852
I0
s(g15
g96
tp853
I0
s(g24
g20
tp854
I0
s(g42
g6
tp855
I0
s(g218
g218
tp856
F0.49681528662420382
s(g109
g94
tp857
I0
s(g90
g9
tp858
I0
s(g3
g2
tp859
I0
s(g65
g15
tp860
I0
s(g109
g74
tp861
I0
s(g45
g218
tp862
I0
s(g124
g89
tp863
I0
s(g84
g202
tp864
I0
s(g24
g58
tp865
I0
s(g65
g126
tp866
I0
s(g89
g84
tp867
I0
s(g23
g105
tp868
I0
s(g42
g11
tp869
I0
s(g105
g15
tp870
I0
s(g240
g89
tp871
I0
s(g12
g210
tp872
I0
s(g32
g240
tp873
I0
s(g24
g202
tp874
I0
s(g124
g240
tp875
I0
s(g172
g44
tp876
I0
s(g118
g84
tp877
I0
s(g31
g82
tp878
I0
s(g96
g47
tp879
I0
s(g67
g89
tp880
I0
s(g172
g58
tp881
I0
s(g74
g109
tp882
I0
s(g108
g14
tp883
I0
s(g214
g26
tp884
I0
s(g39
g70
tp885
I0
s(g124
g64
tp886
I0
s(g103
g18
tp887
I0
s(g52
g62
tp888
I0
s(g218
g45
tp889
I0
s(g62
g14
tp890
I0
s(g15
g65
tp891
I0
s(g42
g44
tp892
I0
s(g29
g78
tp893
I0
s(g78
g8
tp894
I0
s(g56
g78
tp895
I0
s(g24
g172
tp896
I0
s(g109
g41
tp897
I0
s(g103
g108
tp898
I0
s(g17
g90
tp899
I0
s(g74
g214
tp900
I0
s(g15
g89
tp901
I0
s(g276
g173
tp902
I0
s(g42
g14
tp903
I0
s(g80
g96
tp904
I0
s(g62
g44
tp905
I0
s(g129
g76
tp906
I0
s(g99
g68
tp907
I0
s(g76
g210
tp908
I0
s(g163
g47
tp909
I0
s(g90
g62
tp910
I0
s(g84
g11
tp911
I0
s(g39
g210
tp912
I0
s(g27
g9
tp913
I0
s(g118
g240
tp914
I0
s(g109
g17
tp915
I0
s(g47
g36
tp916
I0
s(g39
g6
tp917
I0
s(g65
g38
tp918
I0
s(g68
g27
tp919
I0
s(g29
g218
tp920
I0
s(g89
g103
tp921
I0
s(g24
g11
tp922
I0
s(g32
g50
tp923
I0
s(g276
g210
tp924
I0
s(g105
g8
tp925
I0
s(g109
g202
tp926
I0
s(g11
g90
tp927
I0
s(g14
g29
tp928
I0
s(g218
g84
tp929
I0
s(g67
g218
tp930
I0
s(g80
g103
tp931
I0
s(g45
g32
tp932
I0
s(g32
g44
tp933
I0
s(g15
g109
tp934
I0
s(g38
g276
tp935
I0
s(g42
g56
tp936
I0
s(g276
g17
tp937
I0
s(g34
g67
tp938
I0
s(g99
g105
tp939
I0
s(g3
g8
tp940
I0
s(g70
g82
tp941
I0
s(g27
g24
tp942
I0
s(g76
g214
tp943
I0
s(g115
g241
tp944
I0
s(g70
g65
tp945
I0
s(g82
g241
tp946
I0
s(g90
g173
tp947
I0
s(g276
g2
tp948
I0
s(g199
g94
tp949
I0
s(g17
g267
tp950
I0
s(g11
g11
tp951
F0.59829059829059827
s(g210
g44
tp952
I0
s(g38
g29
tp953
I0
s(g9
g129
tp954
I0
s(g50
g65
tp955
I0
s(g99
g241
tp956
I0
s(g49
g267
tp957
I0
s(g123
g113
tp958
I0
s(g134
g32
tp959
I0
s(g115
g47
tp960
I0
s(g23
g87
tp961
I0
s(g267
g6
tp962
I0
s(g240
g163
tp963
I0
s(g64
g32
tp964
I0
s(g11
g64
tp965
I0
s(g44
g14
tp966
I0
s(g56
g39
tp967
I0
s(g11
g44
tp968
I0
s(g199
g31
tp969
I0
s(g134
g129
tp970
I0
s(g80
g62
tp971
I0
s(g134
g60
tp972
I0
s(g24
g31
tp973
I0
s(g12
g74
tp974
I0
s(g41
g3
tp975
F1
s(g163
g17
tp976
I0
s(g218
g24
tp977
I0
s(g172
g17
tp978
F0.07407407407407407
s(g60
g94
tp979
I0
s(g82
g58
tp980
I0
s(g39
g94
tp981
I0
s(g210
g173
tp982
I0
s(g115
g64
tp983
I0
s(g3
g124
tp984
I0
s(g90
g8
tp985
I0
s(g105
g70
tp986
I0
s(g65
g20
tp987
I0
s(g31
g6
tp988
I0
s(g76
g113
tp989
I0
s(g241
g36
tp990
I0
s(g18
g87
tp991
I0
s(g118
g202
tp992
I0
s(g214
g34
tp993
I0
s(g67
g109
tp994
I0
s(g129
g9
tp995
I0
s(g54
g76
tp996
F1
s(g17
g14
tp997
I0
s(g20
g3
tp998
I0
s(g115
g15
tp999
I0
s(g214
g80
tp1000
I0
s(g84
g39
tp1001
I0
s(g2
g49
tp1002
I0
s(g202
g172
tp1003
I0
s(g3
g14
tp1004
I0
s(g105
g172
tp1005
I0
s(g210
g3
tp1006
I0
s(g9
g56
tp1007
I0
s(g39
g20
tp1008
I0
s(g6
g18
tp1009
I0
s(g36
g113
tp1010
I0
s(g111
g129
tp1011
I0
s(g124
g129
tp1012
I0
s(g118
g31
tp1013
I0
s(g29
g134
tp1014
I0
s(g24
g67
tp1015
I0
s(g82
g24
tp1016
I0
s(g44
g108
tp1017
I0
s(g9
g267
tp1018
I0
s(g76
g82
tp1019
I0
s(g94
g65
tp1020
I0
s(g68
g68
tp1021
F0.4642857142857143
s(g113
g58
tp1022
I0
s(g15
g80
tp1023
I0
s(g172
g6
tp1024
I0
s(g68
g45
tp1025
I0
s(g6
g47
tp1026
I0
s(g115
g134
tp1027
I0
s(g5
g18
tp1028
I0
s(g20
g18
tp1029
I0
s(g172
g210
tp1030
I0
s(g96
g29
tp1031
I0
s(g62
g38
tp1032
I0
s(g14
g68
tp1033
I0
s(g5
g60
tp1034
I0
s(g42
g64
tp1035
I0
s(g65
g240
tp1036
I0
s(g20
g24
tp1037
I0
s(g134
g21
tp1038
I0
s(g108
g45
tp1039
I0
s(g27
g129
tp1040
I0
s(g39
g17
tp1041
I0
s(g89
g173
tp1042
I0
s(g113
g36
tp1043
I0
s(g27
g23
tp1044
I0
s(g38
g41
tp1045
I0
s(g78
g21
tp1046
I0
s(g44
g105
tp1047
I0
s(g113
g210
tp1048
I0
s(g52
g172
tp1049
I0
s(g45
g70
tp1050
I0
s(g54
g202
tp1051
I0
s(g218
g60
tp1052
I0
s(g87
g9
tp1053
I0
s(g32
g103
tp1054
I0
s(g32
g82
tp1055
I0
s(g82
g31
tp1056
I0
s(g82
g99
tp1057
I0
s(g218
g31
tp1058
I0
s(g76
g115
tp1059
I0
s(g202
g17
tp1060
I0
s(g52
g50
tp1061
I0
s(g9
g26
tp1062
I0
s(g163
g8
tp1063
I0
s(g241
g109
tp1064
I0
s(g21
g214
tp1065
I0
s(g267
g23
tp1066
I0
s(g126
g27
tp1067
I0
s(g29
g123
tp1068
F0.66666666666666663
s(g276
g84
tp1069
I0
s(g67
g210
tp1070
I0
s(g113
g116
tp1071
I0
s(g49
g21
tp1072
I0
s(g20
g41
tp1073
I0
s(g44
g76
tp1074
I0
s(g47
g240
tp1075
I0
s(g36
g41
tp1076
I0
s(g32
g60
tp1077
I0
s(g34
g78
tp1078
I0
s(g24
g240
tp1079
F0.54716981132075471
s(g118
g115
tp1080
I0
s(g240
g111
tp1081
I0
s(g108
g56
tp1082
I0
s(g111
g2
tp1083
I0
s(g126
g78
tp1084
I0
s(g118
g78
tp1085
I0
s(g129
g18
tp1086
I0
s(g32
g58
tp1087
I0
s(g172
g116
tp1088
I0
s(g8
g39
tp1089
I0
s(g67
g111
tp1090
F0.5
s(g214
g134
tp1091
I0
s(g116
g78
tp1092
I0
s(g118
g29
tp1093
I0
s(g84
g116
tp1094
I0
s(g94
g241
tp1095
I0
s(g126
g45
tp1096
I0
s(g49
g126
tp1097
I0
s(g39
g134
tp1098
I0
s(g241
g64
tp1099
I0
s(g60
g21
tp1100
I0
s(g62
g8
tp1101
I0
s(g39
g24
tp1102
I0
s(g126
g65
tp1103
I0
s(g103
g39
tp1104
I0
s(g82
g36
tp1105
I0
s(g21
g70
tp1106
I0
s(g62
g116
tp1107
I0
s(g9
g41
tp1108
I0
s(g52
g17
tp1109
I0
s(g173
g14
tp1110
I0
s(g32
g12
tp1111
I0
s(g118
g34
tp1112
I0
s(g96
g39
tp1113
I0
s(g65
g5
tp1114
I0
s(g14
g172
tp1115
I0
s(g103
g80
tp1116
F0.48275862068965519
s(g21
g45
tp1117
F0.52173913043478259
s(g202
g94
tp1118
I0
s(g210
g15
tp1119
I0
s(g8
g27
tp1120
I0
s(g103
g105
tp1121
I0
s(g56
g116
tp1122
I0
s(g60
g96
tp1123
I0
s(g78
g118
tp1124
I0
s(g41
g41
tp1125
I0
s(g15
g32
tp1126
I0
s(g90
g27
tp1127
I0
s(g103
g276
tp1128
I0
s(g56
g8
tp1129
I0
s(g52
g68
tp1130
I0
s(g15
g129
tp1131
I0
s(g276
g60
tp1132
I0
s(g62
g5
tp1133
I0
s(g70
g12
tp1134
I0
s(g14
g202
tp1135
I0
s(g123
g38
tp1136
I0
s(g94
g62
tp1137
I0
s(g70
g129
tp1138
I0
s(g116
g76
tp1139
I0
s(g103
g163
tp1140
I0
s(g78
g17
tp1141
I0
s(g82
g94
tp1142
I0
s(g56
g41
tp1143
I0
s(g41
g82
tp1144
I0
s(g82
g74
tp1145
I0
s(g60
g134
tp1146
I0
s(g8
g276
tp1147
I0
s(g21
g54
tp1148
I0
s(g218
g68
tp1149
I0
s(g87
g199
tp1150
I0
s(g80
g47
tp1151
I0
s(g126
g44
tp1152
I0
s(g14
g64
tp1153
I0
s(g172
g56
tp1154
I0
s(g76
g52
tp1155
I0
s(g124
g2
tp1156
I0
s(g109
g44
tp1157
I0
s(g82
g18
tp1158
I0
s(g202
g45
tp1159
I0
s(g56
g202
tp1160
I0
s(g3
g267
tp1161
I0
s(g24
g134
tp1162
I0
s(g65
g21
tp1163
I0
s(g29
g2
tp1164
I0
s(g172
g87
tp1165
I0
s(g108
g44
tp1166
I0
s(g21
g8
tp1167
I0
s(g54
g17
tp1168
I0
s(g80
g108
tp1169
I0
s(g17
g111
tp1170
I0
s(g84
g74
tp1171
I0
s(g9
g105
tp1172
I0
s(g218
g105
tp1173
I0
s(g39
g163
tp1174
I0
s(g47
g113
tp1175
I0
s(g58
g109
tp1176
I0
s(g163
g126
tp1177
I0
s(g5
g129
tp1178
I0
s(g21
g108
tp1179
I0
s(g214
g74
tp1180
I0
s(g14
g96
tp1181
I0
s(g202
g210
tp1182
I0
s(g67
g47
tp1183
I0
s(g84
g82
tp1184
I0
s(g105
g45
tp1185
I0
s(g44
g31
tp1186
I0
s(g11
g29
tp1187
I0
s(g14
g90
tp1188
I0
s(g123
g21
tp1189
I0
s(g3
g78
tp1190
I0
s(g47
g26
tp1191
I0
s(g6
g276
tp1192
I0
s(g44
g38
tp1193
I0
s(g113
g214
tp1194
I0
s(g5
g134
tp1195
I0
s(g24
g6
tp1196
I0
s(g118
g163
tp1197
I0
s(g24
g42
tp1198
I0
s(g129
g94
tp1199
I0
s(g78
g49
tp1200
I0
s(g126
g26
tp1201
I0
s(g116
g21
tp1202
I0
s(g26
g14
tp1203
I0
s(g44
g56
tp1204
I0
s(g49
g14
tp1205
I0
s(g76
g27
tp1206
I0
s(g89
g34
tp1207
I0
s(g214
g126
tp1208
I0
s(g240
g44
tp1209
I0
s(g214
g49
tp1210
I0
s(g76
g41
tp1211
I0
s(g210
g9
tp1212
F0.505
s(g87
g65
tp1213
I0
s(g47
g60
tp1214
I0
s(g50
g38
tp1215
I0
s(g109
g64
tp1216
I0
s(g173
g214
tp1217
I0
s(g70
g78
tp1218
I0
s(g50
g172
tp1219
I0
s(g29
g32
tp1220
I0
s(g241
g113
tp1221
I0
s(g8
g70
tp1222
I0
s(g5
g124
tp1223
I0
s(g39
g32
tp1224
I0
s(g134
g199
tp1225
I0
s(g134
g26
tp1226
I0
s(g108
g54
tp1227
I0
s(g20
g210
tp1228
I0
s(g54
g105
tp1229
I0
s(g129
g90
tp1230
I0
s(g62
g123
tp1231
I0
s(g172
g90
tp1232
I0
s(g29
g21
tp1233
I0
s(g87
g45
tp1234
I0
s(g9
g173
tp1235
I0
s(g113
g82
tp1236
I0
s(g38
g24
tp1237
I0
s(g84
g276
tp1238
F0.4152542372881356
s(g241
g163
tp1239
I0
s(g173
g89
tp1240
I0
s(g54
g42
tp1241
I0
s(g47
g54
tp1242
I0
s(g241
g115
tp1243
I0
s(g27
g82
tp1244
I0
s(g5
g267
tp1245
I0
s(g42
g42
tp1246
F0.79921259842519687
s(g36
g124
tp1247
I0
s(g47
g29
tp1248
I0
s(g24
g18
tp1249
I0
s(g8
g56
tp1250
I0
s(g210
g240
tp1251
I0
s(g29
g38
tp1252
I0
s(g240
g5
tp1253
I0
s(g5
g241
tp1254
I0
s(g99
g113
tp1255
I0
s(g41
g210
tp1256
I0
s(g64
g45
tp1257
I0
s(g20
g80
tp1258
I0
s(g111
g113
tp1259
I0
s(g67
g5
tp1260
I0
s(g14
g105
tp1261
I0
s(g45
g199
tp1262
I0
s(g36
g89
tp1263
I0
s(g202
g64
tp1264
I0
s(g56
g163
tp1265
I0
s(g202
g14
tp1266
I0
s(g42
g29
tp1267
I0
s(g26
g39
tp1268
I0
s(g12
g96
tp1269
I0
s(g82
g172
tp1270
I0
s(g5
g113
tp1271
I0
s(g54
g60
tp1272
I0
s(g276
g78
tp1273
I0
s(g9
g20
tp1274
I0
s(g267
g163
tp1275
I0
s(g18
g84
tp1276
I0
s(g20
g267
tp1277
I0
s(g36
g214
tp1278
I0
s(g38
g124
tp1279
I0
s(g70
g210
tp1280
I0
s(g90
g32
tp1281
F0.37209302325581395
s(g31
g172
tp1282
I0
s(g172
g2
tp1283
I0
s(g47
g129
tp1284
I0
s(g65
g87
tp1285
I0
s(g54
g18
tp1286
I0
s(g34
g129
tp1287
I0
s(g21
g41
tp1288
I0
s(g267
g2
tp1289
I0
s(g123
g31
tp1290
I0
s(g123
g109
tp1291
I0
s(g8
g8
tp1292
F0.56422018348623848
s(g6
g96
tp1293
I0
s(g14
g163
tp1294
I0
s(g163
g67
tp1295
I0
s(g202
g103
tp1296
I0
s(g74
g68
tp1297
I0
s(g34
g36
tp1298
I0
s(g15
g42
tp1299
I0
s(g113
g78
tp1300
I0
s(g6
g49
tp1301
I0
s(g163
g49
tp1302
I0
s(g94
g5
tp1303
I0
s(g54
g240
tp1304
I0
s(g173
g126
tp1305
I0
s(g70
g108
tp1306
I0
s(g24
g276
tp1307
I0
s(g60
g54
tp1308
I0
s(g68
g202
tp1309
I0
s(g202
g20
tp1310
I0
s(g42
g49
tp1311
I0
s(g214
g29
tp1312
I0
s(g126
g103
tp1313
I0
s(g113
g45
tp1314
I0
s(g50
g18
tp1315
I0
s(g3
g126
tp1316
I0
s(g23
g76
tp1317
F0.058333333333333334
s(g5
g240
tp1318
I0
s(g76
g29
tp1319
I0
s(g67
g115
tp1320
I0
s(g39
g29
tp1321
I0
s(g123
g89
tp1322
I0
s(g80
g41
tp1323
I0
s(g14
g45
tp1324
F0.23229461756373937
s(g18
g67
tp1325
I0
s(g87
g12
tp1326
I0
s(g29
g3
tp1327
I0
s(g60
g60
tp1328
I0
s(g134
g78
tp1329
I0
s(g14
g214
tp1330
I0
s(g29
g109
tp1331
I0
s(g103
g41
tp1332
I0
s(g210
g118
tp1333
I0
s(g111
g218
tp1334
I0
s(g96
g23
tp1335
I0
s(g44
g173
tp1336
I0
s(g276
g24
tp1337
I0
s(g67
g76
tp1338
I0
s(g109
g31
tp1339
I0
s(g6
g74
tp1340
I0
s(g109
g99
tp1341
I0
s(g62
g78
tp1342
I0
s(g115
g74
tp1343
I0
s(g3
g41
tp1344
I0
s(g49
g11
tp1345
I0
s(g68
g14
tp1346
I0
s(g65
g41
tp1347
I0
s(g44
g68
tp1348
I0
s(g96
g80
tp1349
I0
s(g84
g90
tp1350
I0
s(g240
g62
tp1351
I0
s(g76
g17
tp1352
I0
s(g124
g218
tp1353
I0
s(g124
g94
tp1354
I0
s(g24
g70
tp1355
I0
s(g27
g163
tp1356
I0
s(g116
g126
tp1357
I0
s(g62
g45
tp1358
I0
s(g214
g129
tp1359
I0
s(g8
g210
tp1360
I0
s(g89
g3
tp1361
I0
s(g8
g32
tp1362
I0
s(g47
g2
tp1363
I0
s(g68
g18
tp1364
I0
s(g267
g89
tp1365
I0
s(g5
g9
tp1366
I0
s(g74
g108
tp1367
I0
s(g3
g76
tp1368
I0
s(g44
g17
tp1369
I0
s(g218
g240
tp1370
I0
s(g126
g241
tp1371
I0
s(g84
g3
tp1372
I0
s(g113
g241
tp1373
I0
s(g94
g18
tp1374
I0
s(g44
g54
tp1375
I0
s(g115
g60
tp1376
I0
s(g62
g64
tp1377
I0
s(g113
g90
tp1378
I0
s(g39
g84
tp1379
I0
s(g70
g89
tp1380
I0
s(g20
g115
tp1381
F1
s(g52
g11
tp1382
I0
s(g210
g42
tp1383
I0
s(g74
g64
tp1384
I0
s(g32
g45
tp1385
I0
s(g65
g52
tp1386
F0.50306748466257667
s(g94
g47
tp1387
I0
s(g36
g5
tp1388
I0
s(g74
g34
tp1389
I0
s(g60
g5
tp1390
I0
s(g199
g17
tp1391
I0
s(g240
g87
tp1392
I0
s(g34
g24
tp1393
I0
s(g118
g80
tp1394
I0
s(g199
g202
tp1395
I0
s(g58
g89
tp1396
I0
s(g90
g118
tp1397
I0
s(g64
g67
tp1398
I0
s(g99
g49
tp1399
I0
s(g103
g68
tp1400
I0
s(g82
g14
tp1401
I0
s(g70
g36
tp1402
I0
s(g76
g105
tp1403
I0
s(g12
g47
tp1404
I0
s(g199
g126
tp1405
I0
s(g15
g99
tp1406
I0
s(g68
g42
tp1407
I0
s(g8
g111
tp1408
I0
s(g67
g39
tp1409
I0
s(g54
g56
tp1410
I0
s(g134
g108
tp1411
I0
s(g68
g6
tp1412
I0
s(g126
g109
tp1413
I0
s(g26
g210
tp1414
I0
s(g240
g134
tp1415
I0
s(g116
g9
tp1416
I0
s(g3
g24
tp1417
F0.33739837398373984
s(g113
g64
tp1418
I0
s(g18
g163
tp1419
I0
s(g34
g2
tp1420
I0
s(g113
g118
tp1421
I0
s(g39
g67
tp1422
I0
s(g276
g41
tp1423
I0
s(g68
g36
tp1424
I0
s(g38
g5
tp1425
I0
s(g17
g27
tp1426
I0
s(g118
g6
tp1427
I0
s(g8
g105
tp1428
I0
s(g173
g38
tp1429
I0
s(g64
g116
tp1430
I0
s(g89
g199
tp1431
I0
s(g21
g163
tp1432
I0
s(g240
g116
tp1433
I0
s(g47
g111
tp1434
I0
s(g163
g210
tp1435
I0
s(g15
g11
tp1436
I0
s(g103
g29
tp1437
I0
s(g70
g126
tp1438
I0
s(g99
g29
tp1439
I0
s(g172
g80
tp1440
I0
s(g109
g240
tp1441
I0
s(g31
g50
tp1442
I0
s(g108
g111
tp1443
I0
s(g70
g74
tp1444
I0
s(g20
g31
tp1445
I0
s(g87
g52
tp1446
I0
s(g12
g267
tp1447
I0
s(g60
g267
tp1448
I0
s(g11
g89
tp1449
I0
s(g20
g116
tp1450
I0
s(g199
g47
tp1451
I0
s(g2
g23
tp1452
I0
s(g96
g118
tp1453
I0
s(g172
g111
tp1454
I0
s(g94
g240
tp1455
I0
s(g163
g111
tp1456
I0
s(g6
g56
tp1457
I0
s(g2
g90
tp1458
I0
s(g58
g67
tp1459
I0
s(g14
g17
tp1460
I0
s(g58
g74
tp1461
I0
s(g82
g134
tp1462
I0
s(g42
g89
tp1463
I0
s(g108
g24
tp1464
I0
s(g214
g11
tp1465
I0
s(g267
g80
tp1466
I0
s(g68
g26
tp1467
I0
s(g172
g36
tp1468
I0
s(g31
g20
tp1469
I0
s(g12
g87
tp1470
I0
s(g32
g276
tp1471
I0
s(g199
g89
tp1472
I0
s(g6
g24
tp1473
I0
s(g241
g6
tp1474
I0
s(g11
g56
tp1475
I0
s(g11
g2
tp1476
I0
s(g44
g82
tp1477
I0
s(g76
g267
tp1478
I0
s(g34
g45
tp1479
I0
s(g94
g111
tp1480
I0
s(g60
g50
tp1481
I0
s(g12
g65
tp1482
I0
s(g32
g80
tp1483
I0
s(g65
g90
tp1484
I0
s(g82
g129
tp1485
I0
s(g89
g62
tp1486
I0
s(g214
g78
tp1487
I0
s(g62
g6
tp1488
I0
s(g82
g214
tp1489
I0
s(g89
g276
tp1490
I0
s(g108
g58
tp1491
I0
s(g218
g2
tp1492
I0
s(g74
g62
tp1493
I0
s(g70
g118
tp1494
I0
s(g15
g56
tp1495
I0
s(g65
g218
tp1496
I0
s(g115
g82
tp1497
I0
s(g17
g39
tp1498
I0
s(g84
g56
tp1499
I0
s(g70
g105
tp1500
I0
s(g44
g199
tp1501
I0
s(g36
g129
tp1502
I0
s(g36
g173
tp1503
I0
s(g74
g5
tp1504
I0
s(g241
g80
tp1505
I0
s(g6
g60
tp1506
I0
s(g65
g12
tp1507
I0
s(g9
g113
tp1508
I0
s(g87
g240
tp1509
I0
s(g34
g49
tp1510
I0
s(g76
g65
tp1511
I0
s(g34
g27
tp1512
I0
s(g116
g115
tp1513
I0
s(g99
g47
tp1514
I0
s(g67
g34
tp1515
I0
s(g78
g96
tp1516
I0
s(g90
g20
tp1517
I0
s(g32
g2
tp1518
I0
s(g18
g74
tp1519
I0
s(g49
g34
tp1520
I0
s(g118
g89
tp1521
I0
s(g23
g111
tp1522
I0
s(g29
g118
tp1523
I0
s(g17
g36
tp1524
I0
s(g31
g54
tp1525
I0
s(g240
g34
tp1526
I0
s(g18
g210
tp1527
F0.50753768844221103
s(g105
g38
tp1528
I0
s(g5
g67
tp1529
I0
s(g52
g108
tp1530
I0
s(g210
g111
tp1531
I0
s(g42
g41
tp1532
I0
s(g60
g210
tp1533
I0
s(g94
g84
tp1534
I0
s(g41
g18
tp1535
I0
s(g89
g87
tp1536
I0
s(g50
g6
tp1537
I0
s(g116
g124
tp1538
I0
s(g172
g32
tp1539
I0
s(g89
g9
tp1540
I0
s(g118
g23
tp1541
I0
s(g78
g50
tp1542
I0
s(g45
g87
tp1543
I0
s(g118
g214
tp1544
I0
s(g60
g49
tp1545
I0
s(g99
g126
tp1546
I0
s(g199
g105
tp1547
I0
s(g36
g94
tp1548
I0
s(g94
g12
tp1549
I0
s(g39
g56
tp1550
I0
s(g99
g31
tp1551
I0
s(g202
g21
tp1552
I0
s(g241
g116
tp1553
I0
s(g76
g89
tp1554
I0
s(g2
g105
tp1555
I0
s(g31
g38
tp1556
I0
s(g134
g84
tp1557
I0
s(g80
g9
tp1558
I0
s(g68
g134
tp1559
I0
s(g64
g62
tp1560
I0
s(g108
g18
tp1561
I0
s(g41
g96
tp1562
I0
s(g26
g52
tp1563
I0
s(g84
g64
tp1564
I0
s(g214
g23
tp1565
I0
s(g76
g240
tp1566
I0
s(g54
g123
tp1567
I0
s(g56
g54
tp1568
I0
s(g116
g50
tp1569
I0
s(g26
g36
tp1570
I0
s(g68
g94
tp1571
I0
s(g56
g17
tp1572
I0
s(g32
g8
tp1573
I0
s(g173
g90
tp1574
I0
s(g8
g14
tp1575
I0
s(g76
g64
tp1576
I0
s(g45
g27
tp1577
I0
s(g267
g124
tp1578
I0
s(g26
g84
tp1579
I0
s(g267
g49
tp1580
I0
s(g115
g108
tp1581
I0
s(g214
g108
tp1582
I0
s(g111
g41
tp1583
I0
s(g29
g14
tp1584
I0
s(g18
g3
tp1585
I0
s(g12
g89
tp1586
I0
s(g15
g116
tp1587
I0
s(g52
g18
tp1588
I0
s(g74
g18
tp1589
I0
s(g99
g267
tp1590
I0
s(g50
g111
tp1591
I0
s(g210
g56
tp1592
I0
s(g109
g20
tp1593
I0
s(g116
g134
tp1594
I0
s(g76
g62
tp1595
I0
s(g64
g108
tp1596
I0
s(g240
g172
tp1597
I0
s(g199
g23
tp1598
I0
s(g23
g17
tp1599
I0
s(g113
g2
tp1600
I0
s(g56
g80
tp1601
I0
s(g20
g99
tp1602
I0
s(g118
g74
tp1603
I0
s(g12
g64
tp1604
I0
s(g108
g42
tp1605
I0
s(g87
g18
tp1606
I0
s(g42
g80
tp1607
I0
s(g94
g6
tp1608
I0
s(g210
g65
tp1609
I0
s(g202
g96
tp1610
I0
s(g105
g20
tp1611
I0
s(g49
g45
tp1612
I0
s(g2
g24
tp1613
I0
s(g241
g68
tp1614
I0
s(g82
g6
tp1615
I0
s(g12
g34
tp1616
I0
s(g67
g173
tp1617
I0
s(g2
g65
tp1618
I0
s(g240
g45
tp1619
I0
s(g199
g9
tp1620
I0
s(g12
g62
tp1621
I0
s(g163
g163
tp1622
F0.41221374045801529
s(g113
g38
tp1623
I0
s(g24
g199
tp1624
I0
s(g27
g103
tp1625
I0
s(g45
g105
tp1626
I0
s(g62
g29
tp1627
I0
s(g26
g24
tp1628
I0
s(g34
g23
tp1629
I0
s(g39
g34
tp1630
I0
s(g44
g218
tp1631
I0
s(g62
g36
tp1632
I0
s(g26
g32
tp1633
I0
s(g173
g34
tp1634
I0
s(g240
g17
tp1635
I0
s(g39
g38
tp1636
I0
s(g31
g41
tp1637
I0
s(g76
g172
tp1638
I0
s(g6
g21
tp1639
I0
s(g118
g113
tp1640
I0
s(g44
g241
tp1641
I0
s(g2
g108
tp1642
I0
s(g96
g42
tp1643
I0
s(g21
g18
tp1644
I0
s(g36
g103
tp1645
I0
s(g116
g23
tp1646
I0
s(g47
g9
tp1647
I0
s(g163
g5
tp1648
I0
s(g44
g90
tp1649
I0
s(g56
g12
tp1650
I0
s(g109
g84
tp1651
I0
s(g210
g76
tp1652
I0
s(g87
g42
tp1653
F0.50490196078431371
s(g36
g76
tp1654
I0
s(g78
g172
tp1655
I0
s(g80
g32
tp1656
I0
s(g5
g29
tp1657
I0
s(g21
g3
tp1658
I0
s(g96
g108
tp1659
I0
s(g39
g80
tp1660
I0
s(g5
g89
tp1661
I0
s(g45
g76
tp1662
I0
s(g38
g70
tp1663
I0
s(g20
g218
tp1664
I0
s(g27
g214
tp1665
I0
s(g99
g20
tp1666
I0
s(g14
g267
tp1667
I0
s(g11
g105
tp1668
I0
s(g8
g90
tp1669
I0
s(g113
g29
tp1670
I0
s(g82
g115
tp1671
I0
s(g76
g39
tp1672
I0
s(g60
g214
tp1673
I0
s(g41
g126
tp1674
I0
s(g20
g58
tp1675
I0
s(g124
g47
tp1676
I0
s(g134
g163
tp1677
I0
s(g118
g26
tp1678
I0
s(g2
g87
tp1679
I0
s(g41
g14
tp1680
I0
s(g105
g2
tp1681
I0
s(g34
g105
tp1682
I0
s(g20
g44
tp1683
I0
s(g90
g58
tp1684
I0
s(g20
g64
tp1685
I0
s(g24
g12
tp1686
I0
s(g116
g199
tp1687
I0
s(g17
g105
tp1688
I0
s(g38
g76
tp1689
I0
s(g134
g2
tp1690
I0
s(g90
g218
tp1691
I0
s(g218
g113
tp1692
I0
s(g20
g34
tp1693
I0
s(g70
g96
tp1694
I0
s(g38
g240
tp1695
I0
s(g18
g27
tp1696
I0
s(g26
g87
tp1697
I0
s(g115
g276
tp1698
I0
s(g56
g3
tp1699
I0
s(g94
g76
tp1700
I0
s(g56
g267
tp1701
I0
s(g241
g172
tp1702
I0
s(g90
g36
tp1703
I0
s(g41
g172
tp1704
I0
s(g32
g32
tp1705
F0.55714285714285716
s(g199
g109
tp1706
I0
s(g42
g78
tp1707
I0
s(g31
g52
tp1708
I0
s(g210
g32
tp1709
I0
s(g80
g42
tp1710
I0
s(g12
g8
tp1711
I0
s(g113
g240
tp1712
I0
s(g214
g123
tp1713
I0
s(g96
g8
tp1714
I0
s(g38
g54
tp1715
I0
s(g172
g99
tp1716
I0
s(g68
g56
tp1717
I0
s(g89
g108
tp1718
I0
s(g29
g90
tp1719
I0
s(g18
g276
tp1720
I0
s(g202
g41
tp1721
I0
s(g94
g218
tp1722
I0
s(g8
g2
tp1723
I0
s(g87
g60
tp1724
I0
s(g78
g47
tp1725
I0
s(g62
g126
tp1726
I0
s(g27
g18
tp1727
I0
s(g24
g60
tp1728
I0
s(g129
g50
tp1729
I0
s(g38
g65
tp1730
I0
s(g113
g109
tp1731
I0
s(g34
g173
tp1732
I0
s(g6
g173
tp1733
I0
s(g8
g87
tp1734
I0
s(g76
g8
tp1735
I0
s(g115
g36
tp1736
I0
s(g74
g17
tp1737
I0
s(g5
g34
tp1738
I0
s(g58
g62
tp1739
I0
s(g42
g105
tp1740
I0
s(g78
g89
tp1741
I0
s(g115
g29
tp1742
I0
s(g21
g9
tp1743
I0
s(g2
g89
tp1744
I0
s(g116
g173
tp1745
I0
s(g41
g84
tp1746
I0
s(g108
g50
tp1747
I0
s(g134
g70
tp1748
I0
s(g111
g94
tp1749
I0
s(g94
g32
tp1750
I0
s(g99
g163
tp1751
I0
s(g173
g20
tp1752
I0
s(g15
g202
tp1753
I0
s(g64
g241
tp1754
I0
s(g199
g199
tp1755
F0.57959183673469383
s(g67
g82
tp1756
I0
s(g68
g60
tp1757
I0
s(g70
g52
tp1758
I0
s(g126
g210
tp1759
I0
s(g115
g52
tp1760
I0
s(g116
g87
tp1761
I0
s(g126
g6
tp1762
I0
s(g5
g80
tp1763
I0
s(g118
g172
tp1764
I0
s(g241
g47
tp1765
I0
s(g267
g99
tp1766
I0
s(g24
g56
tp1767
I0
s(g41
g90
tp1768
I0
s(g80
g17
tp1769
I0
s(g96
g240
tp1770
I0
s(g11
g78
tp1771
I0
s(g126
g2
tp1772
I0
s(g41
g58
tp1773
I0
s(g99
g80
tp1774
I0
s(g68
g29
tp1775
I0
s(g126
g218
tp1776
I0
s(g8
g21
tp1777
I0
s(g78
g87
tp1778
I0
s(g8
g20
tp1779
I0
s(g173
g218
tp1780
I0
s(g29
g24
tp1781
I0
s(g54
g11
tp1782
I0
s(g32
g108
tp1783
I0
s(g111
g45
tp1784
I0
s(g109
g62
tp1785
I0
s(g172
g39
tp1786
I0
s(g163
g39
tp1787
I0
s(g45
g38
tp1788
I0
s(g199
g21
tp1789
I0
s(g76
g103
tp1790
I0
s(g8
g24
tp1791
I0
s(g74
g210
tp1792
I0
s(g70
g94
tp1793
I0
s(g276
g240
tp1794
I0
s(g32
g9
tp1795
I0
s(g241
g14
tp1796
I0
s(g58
g134
tp1797
I0
s(g87
g68
tp1798
I0
s(g47
g84
tp1799
I0
s(g62
g210
tp1800
I0
s(g67
g44
tp1801
I0
s(g214
g5
tp1802
I0
s(g74
g23
tp1803
I0
s(g103
g27
tp1804
I0
s(g17
g60
tp1805
I0
s(g218
g118
tp1806
I0
s(g14
g11
tp1807
I0
s(g134
g56
tp1808
I0
s(g20
g123
tp1809
I0
s(g163
g124
tp1810
I0
s(g163
g23
tp1811
I0
s(g276
g74
tp1812
I0
s(g26
g34
tp1813
I0
s(g76
g163
tp1814
I0
s(g17
g32
tp1815
I0
s(g39
g115
tp1816
I0
s(g105
g26
tp1817
I0
s(g105
g199
tp1818
I0
s(g134
g24
tp1819
I0
s(g115
g163
tp1820
I0
s(g62
g90
tp1821
I0
s(g54
g41
tp1822
I0
s(g214
g163
tp1823
I0
s(g172
g118
tp1824
I0
s(g45
g103
tp1825
I0
s(g21
g50
tp1826
I0
s(g15
g134
tp1827
I0
s(g103
g34
tp1828
I0
s(g44
g84
tp1829
I0
s(g163
g68
tp1830
I0
s(g11
g39
tp1831
I0
s(g17
g124
tp1832
I0
s(g18
g39
tp1833
I0
s(g134
g89
tp1834
I0
s(g36
g17
tp1835
I0
s(g47
g202
tp1836
I0
s(g172
g108
tp1837
I0
s(g47
g214
tp1838
I0
s(g8
g76
tp1839
I0
s(g58
g64
tp1840
I0
s(g8
g84
tp1841
I0
s(g80
g12
tp1842
I0
s(g12
g163
tp1843
I0
s(g115
g38
tp1844
I0
s(g62
g34
tp1845
I0
s(g2
g54
tp1846
I0
s(g89
g12
tp1847
I0
s(g2
g84
tp1848
I0
s(g45
g111
tp1849
I0
s(g39
g124
tp1850
I0
s(g108
g15
tp1851
I0
s(g6
g134
tp1852
I0
s(g202
g47
tp1853
I0
s(g64
g34
tp1854
I0
s(g115
g6
tp1855
I0
s(g9
g32
tp1856
I0
s(g38
g78
tp1857
I0
s(g3
g99
tp1858
I0
s(g38
g52
tp1859
I0
s(g199
g240
tp1860
I0
s(g109
g15
tp1861
I0
s(g218
g65
tp1862
I0
s(g172
g15
tp1863
I0
s(g20
g90
tp1864
I0
s(g89
g241
tp1865
I0
s(g76
g5
tp1866
I0
s(g113
g23
tp1867
I0
s(g129
g109
tp1868
I0
s(g21
g80
tp1869
I0
s(g18
g82
tp1870
I0
s(g105
g56
tp1871
I0
s(g29
g26
tp1872
I0
s(g241
g96
tp1873
I0
s(g44
g24
tp1874
I0
s(g58
g90
tp1875
I0
s(g126
g29
tp1876
I0
s(g109
g23
tp1877
I0
s(g45
g50
tp1878
I0
s(g84
g62
tp1879
I0
s(g76
g18
tp1880
I0
s(g49
g62
tp1881
I0
s(g60
g99
tp1882
I0
s(g126
g36
tp1883
I0
s(g218
g27
tp1884
F0.50318471337579618
s(g14
g78
tp1885
I0
s(g39
g18
tp1886
I0
s(g54
g129
tp1887
I0
s(g80
g3
tp1888
I0
s(g173
g12
tp1889
I0
s(g80
g44
tp1890
I0
s(g20
g240
tp1891
I0
s(g45
g2
tp1892
I0
s(g36
g78
tp1893
I0
s(g210
g241
tp1894
I0
s(g96
g163
tp1895
I0
s(g276
g27
tp1896
I0
s(g126
g84
tp1897
I0
s(g41
g65
tp1898
I0
s(g17
g3
tp1899
I0
s(g27
g54
tp1900
I0
s(g210
g2
tp1901
I0
s(g124
g27
tp1902
I0
s(g67
g32
tp1903
I0
s(g111
g118
tp1904
I0
s(g70
g111
tp1905
I0
s(g241
g214
tp1906
I0
s(g116
g67
tp1907
I0
s(g64
g87
tp1908
I0
s(g65
g103
tp1909
I0
s(g218
g20
tp1910
I0
s(g240
g32
tp1911
I0
s(g42
g90
tp1912
I0
s(g74
g134
tp1913
I0
s(g56
g29
tp1914
I0
s(g24
g27
tp1915
I0
s(g199
g45
tp1916
I0
s(g5
g115
tp1917
I0
s(g52
g173
tp1918
I0
s(g124
g32
tp1919
I0
s(g241
g89
tp1920
I0
s(g60
g124
tp1921
I0
s(g202
g87
tp1922
I0
s(g9
g218
tp1923
I0
s(g109
g67
tp1924
I0
s(g103
g5
tp1925
I0
s(g109
g105
tp1926
F0.033670033670033669
s(g214
g6
tp1927
I0
s(g199
g14
tp1928
I0
s(g276
g45
tp1929
I0
s(g50
g96
tp1930
I0
s(g17
g89
tp1931
I0
s(g76
g6
tp1932
I0
s(g41
g267
tp1933
I0
s(g84
g123
tp1934
I0
s(g103
g109
tp1935
I0
s(g2
g173
tp1936
I0
s(g58
g23
tp1937
I0
s(g27
g267
tp1938
I0
s(g214
g96
tp1939
I0
s(g62
g80
tp1940
I0
s(g241
g52
tp1941
I0
s(g17
g24
tp1942
I0
s(g50
g89
tp1943
I0
s(g118
g67
tp1944
I0
s(g96
g103
tp1945
I0
s(g74
g65
tp1946
I0
s(g21
g126
tp1947
I0
s(g90
g115
tp1948
I0
s(g52
g267
tp1949
I0
s(g65
g8
tp1950
I0
s(g15
g6
tp1951
I0
s(g18
g214
tp1952
I0
s(g70
g123
tp1953
I0
s(g113
g14
tp1954
I0
s(g3
g70
tp1955
I0
s(g62
g241
tp1956
I0
s(g21
g76
tp1957
I0
s(g45
g20
tp1958
I0
s(g129
g52
tp1959
I0
s(g90
g56
tp1960
I0
s(g240
g108
tp1961
I0
s(g64
g134
tp1962
I0
s(g87
g123
tp1963
I0
s(g11
g41
tp1964
I0
s(g126
g126
tp1965
F0.66666666666666663
s(g58
g14
tp1966
I0
s(g52
g109
tp1967
I0
s(g12
g45
tp1968
F0.20000000000000001
s(g218
g267
tp1969
I0
s(g29
g210
tp1970
I0
s(g18
g199
tp1971
I0
s(g6
g32
tp1972
I0
s(g173
g9
tp1973
I0
s(g15
g2
tp1974
I0
s(g276
g58
tp1975
I0
s(g36
g38
tp1976
I0
s(g2
g172
tp1977
I0
s(g31
g214
tp1978
I0
s(g60
g17
tp1979
I0
s(g241
g126
tp1980
I0
s(g173
g70
tp1981
I0
s(g276
g44
tp1982
I0
s(g15
g123
tp1983
I0
s(g218
g67
tp1984
I0
s(g47
g80
tp1985
I0
s(g15
g24
tp1986
I0
s(g134
g240
tp1987
I0
s(g94
g96
tp1988
I0
s(g267
g118
tp1989
I0
s(g23
g21
tp1990
I0
s(g6
g115
tp1991
I0
s(g84
g103
tp1992
I0
s(g94
g49
tp1993
I0
s(g8
g65
tp1994
I0
s(g45
g14
tp1995
I0
s(g99
g18
tp1996
I0
s(g3
g45
tp1997
I0
s(g67
g116
tp1998
I0
s(g214
g94
tp1999
I0
s(g18
g24
tp2000
I0
s(g11
g24
tp2001
I0
s(g9
g65
tp2002
I0
s(g56
g60
tp2003
I0
s(g202
g8
tp2004
I0
s(g17
g163
tp2005
I0
s(g134
g210
tp2006
I0
s(g20
g52
tp2007
I0
s(g9
g24
tp2008
I0
s(g99
g99
tp2009
I0
s(g267
g241
tp2010
I0
s(g94
g9
tp2011
I0
s(g41
g62
tp2012
I0
s(g62
g2
tp2013
I0
s(g17
g276
tp2014
I0
s(g210
g124
tp2015
I0
s(g31
g103
tp2016
I0
s(g26
g65
tp2017
I0
s(g20
g126
tp2018
I0
s(g90
g109
tp2019
F0.023255813953488372
s(g15
g31
tp2020
I0
s(g241
g103
tp2021
I0
s(g111
g111
tp2022
F0.36363636363636365
s(g54
g12
tp2023
I0
s(g5
g99
tp2024
I0
s(g89
g39
tp2025
I0
s(g129
g89
tp2026
I0
s(g82
g26
tp2027
I0
s(g94
g45
tp2028
I0
s(g38
g31
tp2029
I0
s(g126
g115
tp2030
I0
s(g5
g163
tp2031
I0
s(g50
g80
tp2032
I0
s(g41
g64
tp2033
I0
s(g90
g12
tp2034
I0
s(g12
g36
tp2035
I0
s(g56
g172
tp2036
I0
s(g173
g87
tp2037
I0
s(g129
g214
tp2038
I0
s(g60
g18
tp2039
I0
s(g58
g36
tp2040
I0
s(g11
g3
tp2041
I0
s(g44
g9
tp2042
I0
s(g68
g124
tp2043
I0
s(g118
g124
tp2044
F1
s(g80
g202
tp2045
I0
s(g240
g80
tp2046
I0
s(g64
g74
tp2047
I0
s(g172
g20
tp2048
I0
s(g34
g218
tp2049
I0
s(g42
g68
tp2050
I0
s(g134
g267
tp2051
I0
s(g20
g5
tp2052
I0
s(g11
g15
tp2053
I0
s(g18
g15
tp2054
I0
s(g267
g94
tp2055
I0
s(g67
g80
tp2056
I0
s(g87
g21
tp2057
I0
s(g115
g62
tp2058
I0
s(g52
g21
tp2059
I0
s(g21
g94
tp2060
I0
s(g54
g24
tp2061
I0
s(g17
g94
tp2062
I0
s(g80
g116
tp2063
I0
s(g52
g134
tp2064
I0
s(g113
g6
tp2065
I0
s(g94
g124
tp2066
I0
s(g65
g49
tp2067
I0
s(g14
g41
tp2068
I0
s(g20
g109
tp2069
I0
s(g42
g3
tp2070
I0
s(g134
g172
tp2071
I0
s(g2
g15
tp2072
F0.40163934426229508
s(g5
g26
tp2073
I0
s(g276
g54
tp2074
I0
s(g50
g26
tp2075
I0
s(g44
g49
tp2076
I0
s(g103
g118
tp2077
I0
s(g118
g62
tp2078
I0
s(g80
g214
tp2079
I0
s(g70
g68
tp2080
I0
s(g15
g36
tp2081
I0
s(g26
g12
tp2082
I0
s(g113
g218
tp2083
I0
s(g58
g126
tp2084
I0
s(g116
g118
tp2085
I0
s(g29
g82
tp2086
I0
s(g31
g8
tp2087
I0
s(g58
g50
tp2088
I0
s(g24
g15
tp2089
I0
s(g12
g52
tp2090
I0
s(g89
g27
tp2091
I0
s(g14
g84
tp2092
I0
s(g45
g90
tp2093
I0
s(g80
g89
tp2094
I0
s(g129
g11
tp2095
I0
s(g241
g58
tp2096
I0
s(g68
g116
tp2097
I0
s(g199
g129
tp2098
I0
s(g26
g8
tp2099
I0
s(g94
g80
tp2100
I0
s(g49
g17
tp2101
I0
s(g267
g134
tp2102
I0
s(g78
g15
tp2103
I0
s(g115
g9
tp2104
I0
s(g105
g118
tp2105
I0
s(g111
g15
tp2106
I0
s(g64
g118
tp2107
I0
s(g276
g129
tp2108
I0
s(g80
g90
tp2109
I0
s(g47
g116
tp2110
I0
s(g105
g36
tp2111
I0
s(g60
g116
tp2112
I0
s(g163
g64
tp2113
I0
s(g109
g42
tp2114
I0
s(g64
g9
tp2115
I0
s(g218
g26
tp2116
I0
s(g44
g123
tp2117
I0
s(g105
g29
tp2118
I0
s(g49
g68
tp2119
I0
s(g111
g89
tp2120
I0
s(g172
g38
tp2121
I0
s(g109
g38
tp2122
I0
s(g267
g87
tp2123
I0
s(g113
g24
tp2124
I0
s(g105
g84
tp2125
I0
s(g39
g113
tp2126
I0
s(g17
g82
tp2127
I0
s(g38
g202
tp2128
I0
s(g74
g29
tp2129
I0
s(g39
g103
tp2130
I0
s(g214
g24
tp2131
I0
s(g38
g87
tp2132
I0
s(g50
g124
tp2133
I0
s(g17
g103
tp2134
I0
s(g18
g94
tp2135
I0
s(g17
g6
tp2136
I0
s(g60
g65
tp2137
I0
s(g76
g123
tp2138
I0
s(g65
g76
tp2139
I0
s(g65
g108
tp2140
I0
s(g11
g111
tp2141
I0
s(g18
g111
tp2142
I0
s(g99
g134
tp2143
I0
s(g67
g172
tp2144
I0
s(g56
g64
tp2145
I0
s(g123
g49
tp2146
I0
s(g49
g111
tp2147
I0
s(g64
g173
tp2148
I0
s(g129
g67
tp2149
I0
s(g45
g9
tp2150
I0
s(g62
g99
tp2151
I0
s(g27
g26
tp2152
I0
s(g49
g47
tp2153
F0.58571428571428574
s(g218
g173
tp2154
I0
s(g45
g49
tp2155
I0
s(g60
g123
tp2156
I0
s(g14
g56
tp2157
I0
s(g29
g240
tp2158
I0
s(g103
g14
tp2159
I0
s(g26
g70
tp2160
I0
s(g9
g17
tp2161
I0
s(g99
g70
tp2162
I0
s(g210
g6
tp2163
I0
s(g89
g134
tp2164
I0
s(g11
g17
tp2165
I0
s(g47
g163
tp2166
I0
s(g103
g15
tp2167
I0
s(g39
g240
tp2168
I0
s(g27
g36
tp2169
I0
s(g50
g9
tp2170
I0
s(g276
g214
tp2171
I0
s(g39
g60
tp2172
I0
s(g39
g76
tp2173
I0
s(g267
g126
tp2174
I0
s(g58
g38
tp2175
I0
s(g199
g62
tp2176
I0
s(g56
g90
tp2177
I0
s(g8
g41
tp2178
I0
s(g173
g26
tp2179
I0
s(g38
g60
tp2180
I0
s(g3
g129
tp2181
I0
s(g267
g24
tp2182
I0
s(g163
g76
tp2183
I0
s(g56
g241
tp2184
I0
s(g23
g103
tp2185
I0
s(g54
g94
tp2186
I0
s(g129
g47
tp2187
I0
s(g113
g5
tp2188
I0
s(g70
g54
tp2189
I0
s(g21
g116
tp2190
I0
s(g49
g67
tp2191
I0
s(g11
g80
tp2192
I0
s(g94
g60
tp2193
I0
s(g11
g8
tp2194
I0
s(g50
g84
tp2195
I0
s(g11
g23
tp2196
I0
s(g32
g18
tp2197
I0
s(g18
g173
tp2198
I0
s(g267
g42
tp2199
I0
s(g31
g31
tp2200
F0.5
s(g21
g42
tp2201
I0
s(g116
g113
tp2202
I0
s(g23
g2
tp2203
I0
s(g42
g111
tp2204
I0
s(g123
g41
tp2205
I0
s(g23
g38
tp2206
I0
s(g94
g54
tp2207
I0
s(g70
g39
tp2208
I0
s(g39
g12
tp2209
I0
s(g70
g62
tp2210
I0
s(g163
g276
tp2211
I0
s(g172
g276
tp2212
I0
s(g47
g12
tp2213
I0
s(g218
g18
tp2214
I0
s(g26
g68
tp2215
I0
s(g124
g17
tp2216
I0
s(g21
g39
tp2217
I0
s(g68
g11
tp2218
I0
s(g214
g12
tp2219
I0
s(g9
g124
tp2220
I0
s(g173
g276
tp2221
I0
s(g20
g111
tp2222
I0
s(g56
g52
tp2223
I0
s(g199
g27
tp2224
I0
s(g68
g54
tp2225
I0
s(g34
g68
tp2226
I0
s(g68
g267
tp2227
I0
s(g44
g202
tp2228
I0
s(g36
g218
tp2229
I0
s(g241
g42
tp2230
I0
s(g129
g27
tp2231
I0
s(g26
g17
tp2232
I0
s(g105
g58
tp2233
I0
s(g15
g172
tp2234
I0
s(g124
g26
tp2235
I0
s(g134
g124
tp2236
I0
s(g65
g111
tp2237
I0
s(g90
g65
tp2238
I0
s(g26
g21
tp2239
I0
s(g113
g115
tp2240
I0
s(g3
g214
tp2241
I0
s(g15
g78
tp2242
I0
s(g113
g94
tp2243
I0
s(g116
g24
tp2244
I0
s(g103
g202
tp2245
I0
s(g56
g214
tp2246
I0
s(g134
g111
tp2247
I0
s(g118
g118
tp2248
I0
s(g87
g26
tp2249
I0
s(g87
g103
tp2250
I0
s(g60
g89
tp2251
I0
s(g80
g18
tp2252
I0
s(g9
g99
tp2253
I0
s(g56
g108
tp2254
I0
s(g2
g82
tp2255
I0
s(g24
g113
tp2256
I0
s(g115
g5
tp2257
I0
s(g111
g6
tp2258
I0
s(g89
g15
tp2259
I0
s(g116
g58
tp2260
I0
s(g36
g45
tp2261
I0
s(g54
g32
tp2262
I0
s(g99
g6
tp2263
I0
s(g210
g218
tp2264
I0
s(g163
g9
tp2265
I0
s(g94
g116
tp2266
I0
s(g64
g24
tp2267
I0
s(g111
g96
tp2268
I0
s(g44
g36
tp2269
I0
s(g70
g44
tp2270
I0
s(g240
g47
tp2271
I0
s(g34
g87
tp2272
I0
s(g84
g108
tp2273
I0
s(g111
g27
tp2274
I0
s(g26
g29
tp2275
I0
s(g9
g44
tp2276
I0
s(g31
g65
tp2277
I0
s(g17
g54
tp2278
I0
s(g47
g45
tp2279
I0
s(g68
g70
tp2280
I0
s(g96
g199
tp2281
I0
s(g14
g108
tp2282
I0
s(g103
g11
tp2283
I0
s(g15
g82
tp2284
I0
s(g38
g3
tp2285
I0
s(g58
g34
tp2286
I0
s(g26
g9
tp2287
I0
s(g21
g62
tp2288
I0
s(g31
g87
tp2289
I0
s(g20
g14
tp2290
I0
s(g126
g129
tp2291
I0
s(g218
g134
tp2292
I0
s(g27
g94
tp2293
I0
s(g87
g84
tp2294
I0
s(g39
g105
tp2295
I0
s(g105
g276
tp2296
I0
s(g47
g124
tp2297
I0
s(g87
g32
tp2298
I0
s(g20
g15
tp2299
I0
s(g11
g5
tp2300
I0
s(g38
g6
tp2301
I0
s(g276
g65
tp2302
I0
s(g126
g50
tp2303
I0
s(g124
g58
tp2304
I0
s(g54
g99
tp2305
I0
s(g38
g210
tp2306
I0
s(g23
g199
tp2307
I0
s(g29
g99
tp2308
I0
s(g113
g173
tp2309
I0
s(g76
g38
tp2310
I0
s(g108
g80
tp2311
I0
s(g31
g267
tp2312
I0
s(g38
g90
tp2313
I0
s(g31
g105
tp2314
I0
s(g12
g50
tp2315
I0
s(g109
g65
tp2316
I0
s(g36
g44
tp2317
I0
s(g18
g76
tp2318
I0
s(g105
g27
tp2319
I0
s(g50
g240
tp2320
I0
s(g82
g123
tp2321
I0
s(g3
g31
tp2322
I0
s(g109
g163
tp2323
I0
s(g105
g78
tp2324
I0
s(g9
g18
tp2325
I0
s(g74
g96
tp2326
I0
s(g8
g109
tp2327
I0
s(g56
g82
tp2328
I0
s(g124
g241
tp2329
I0
s(g27
g172
tp2330
I0
s(g14
g24
tp2331
I0
s(g108
g9
tp2332
I0
s(g202
g5
tp2333
I0
s(g50
g116
tp2334
I0
s(g76
g54
tp2335
I0
s(g214
g58
tp2336
I0
s(g52
g42
tp2337
I0
s(g111
g39
tp2338
I0
s(g202
g54
tp2339
I0
s(g27
g52
tp2340
I0
s(g65
g64
tp2341
I0
s(g29
g67
tp2342
I0
s(g89
g111
tp2343
I0
s(g26
g218
tp2344
I0
s(g87
g172
tp2345
I0
s(g18
g36
tp2346
I0
s(g23
g115
tp2347
I0
s(g64
g42
tp2348
I0
s(g199
g124
tp2349
I0
s(g129
g8
tp2350
I0
s(g68
g2
tp2351
I0
s(g109
g9
tp2352
I0
s(g47
g18
tp2353
I0
s(g76
g126
tp2354
I0
s(g15
g218
tp2355
I0
s(g34
g54
tp2356
I0
s(g17
g64
tp2357
I0
s(g15
g29
tp2358
I0
s(g76
g50
tp2359
I0
s(g6
g65
tp2360
I0
s(g111
g11
tp2361
I0
s(g115
g67
tp2362
I0
s(g109
g82
tp2363
I0
s(g74
g163
tp2364
I0
s(g26
g90
tp2365
I0
s(g108
g36
tp2366
I0
s(g41
g8
tp2367
I0
s(g23
g82
tp2368
I0
s(g6
g68
tp2369
I0
s(g31
g47
tp2370
I0
s(g105
g34
tp2371
I0
s(g45
g41
tp2372
I0
s(g218
g115
tp2373
I0
s(g36
g24
tp2374
I0
s(g84
g50
tp2375
I0
s(g87
g80
tp2376
I0
s(g173
g76
tp2377
I0
s(g123
g218
tp2378
I0
s(g17
g12
tp2379
I0
s(g210
g276
tp2380
I0
s(g240
g20
tp2381
I0
s(g111
g78
tp2382
I0
s(g67
g29
tp2383
I0
s(g12
g14
tp2384
I0
s(g27
g58
tp2385
I0
s(g214
g202
tp2386
I0
s(g12
g126
tp2387
I0
s(g52
g34
tp2388
I0
s(g50
g218
tp2389
I0
s(g42
g5
tp2390
I0
s(g108
g62
tp2391
I0
s(g116
g2
tp2392
I0
s(g60
g14
tp2393
I0
s(g240
g54
tp2394
I0
s(g129
g202
tp2395
I0
s(g39
g64
tp2396
I0
s(g18
g32
tp2397
I0
s(g96
g76
tp2398
I0
s(g21
g103
tp2399
I0
s(g163
g20
tp2400
I0
s(g123
g240
tp2401
I0
s(g76
g20
tp2402
I0
s(g218
g89
tp2403
I0
s(g8
g17
tp2404
I0
s(g20
g39
tp2405
I0
s(g58
g27
tp2406
I0
s(g199
g172
tp2407
I0
s(g41
g74
tp2408
I0
s(g8
g126
tp2409
I0
s(g2
g45
tp2410
I0
s(g123
g32
tp2411
I0
s(g29
g34
tp2412
I0
s(g31
g14
tp2413
I0
s(g202
g52
tp2414
I0
s(g218
g214
tp2415
I0
s(g18
g17
tp2416
I0
s(g199
g18
tp2417
I0
s(g17
g8
tp2418
I0
s(g24
g45
tp2419
I0
s(g94
g276
tp2420
I0
s(g38
g26
tp2421
I0
s(g58
g87
tp2422
I0
s(g14
g82
tp2423
I0
s(g134
g5
tp2424
I0
s(g105
g50
tp2425
I0
s(g6
g34
tp2426
I0
s(g89
g21
tp2427
I0
s(g3
g87
tp2428
I0
s(g87
g54
tp2429
I0
s(g24
g90
tp2430
I0
s(g105
g3
tp2431
I0
s(g210
g64
tp2432
I0
s(g87
g31
tp2433
I0
s(g50
g82
tp2434
I0
s(g172
g113
tp2435
I0
s(g62
g54
tp2436
I0
s(g68
g123
tp2437
I0
s(g24
g218
tp2438
I0
s(g49
g9
tp2439
I0
s(g21
g14
tp2440
I0
s(g108
g218
tp2441
I0
s(g64
g68
tp2442
I0
s(g5
g199
tp2443
I0
s(g109
g80
tp2444
I0
s(g67
g3
tp2445
I0
s(g78
g210
tp2446
I0
s(g12
g21
tp2447
I0
s(g12
g105
tp2448
I0
s(g17
g56
tp2449
I0
s(g99
g67
tp2450
I0
s(g21
g15
tp2451
I0
s(g172
g218
tp2452
I0
s(g64
g129
tp2453
I0
s(g36
g210
tp2454
I0
s(g240
g15
tp2455
I0
s(g15
g39
tp2456
I0
s(g276
g241
tp2457
I0
s(g6
g267
tp2458
I0
s(g58
g11
tp2459
I0
s(g96
g62
tp2460
I0
s(g42
g108
tp2461
I0
s(g129
g134
tp2462
I0
s(g41
g89
tp2463
I0
s(g173
g39
tp2464
I0
s(g2
g111
tp2465
I0
s(g241
g3
tp2466
I0
s(g96
g27
tp2467
I0
s(g80
g99
tp2468
I0
s(g3
g173
tp2469
I0
s(g99
g23
tp2470
I0
s(g14
g76
tp2471
I0
s(g62
g118
tp2472
I0
s(g116
g49
tp2473
I0
s(g68
g82
tp2474
I0
s(g74
g78
tp2475
I0
s(g9
g214
tp2476
I0
s(g276
g276
tp2477
F0.47593582887700536
s(g34
g65
tp2478
I0
s(g103
g116
tp2479
I0
s(g50
g276
tp2480
I0
s(g108
g31
tp2481
I0
s(g89
g67
tp2482
I0
s(g70
g11
tp2483
I0
s(g42
g84
tp2484
I0
s(g6
g87
tp2485
I0
s(g27
g11
tp2486
I0
s(g87
g90
tp2487
I0
s(g2
g41
tp2488
I0
s(g99
g94
tp2489
I0
s(g31
g96
tp2490
I0
s(g116
g65
tp2491
I0
s(g103
g240
tp2492
I0
s(g218
g38
tp2493
I0
s(g214
g44
tp2494
I0
s(g23
g173
tp2495
I0
s(g173
g173
tp2496
I0
s(g20
g276
tp2497
I0
s(g199
g103
tp2498
I0
s(g31
g17
tp2499
I0
s(g129
g54
tp2500
I0
s(g50
g15
tp2501
I0
s(g9
g78
tp2502
I0
s(g103
g54
tp2503
I0
s(g218
g8
tp2504
I0
s(g34
g50
tp2505
I0
s(g11
g38
tp2506
I0
s(g38
g64
tp2507
I0
s(g56
g24
tp2508
I0
s(g276
g103
tp2509
I0
s(g3
g115
tp2510
I0
s(g116
g96
tp2511
I0
s(g6
g5
tp2512
I0
s(g103
g210
tp2513
I0
s(g87
g49
tp2514
I0
s(g64
g267
tp2515
I0
s(g32
g56
tp2516
I0
s(g44
g11
tp2517
I0
s(g87
g20
tp2518
I0
s(g12
g103
tp2519
I0
s(g80
g6
tp2520
I0
s(g103
g173
tp2521
I0
s(g74
g47
tp2522
I0
s(g34
g96
tp2523
I0
s(g38
g89
tp2524
I0
s(g23
g26
tp2525
I0
s(g123
g118
tp2526
I0
s(g39
g50
tp2527
I0
s(g118
g94
tp2528
I0
s(g123
g64
tp2529
I0
s(g65
g173
tp2530
I0
s(g124
g36
tp2531
I0
s(g126
g87
tp2532
I0
s(g240
g38
tp2533
I0
s(g109
g12
tp2534
I0
s(g14
g2
tp2535
I0
s(g78
g116
tp2536
I0
s(g38
g214
tp2537
I0
s(g27
g70
tp2538
I0
s(g241
g241
tp2539
F0.5
s(g202
g74
tp2540
I0
s(g202
g267
tp2541
I0
s(g39
g199
tp2542
I0
s(g240
g6
tp2543
I0
s(g5
g56
tp2544
I0
s(g124
g84
tp2545
I0
s(g11
g84
tp2546
I0
s(g11
g109
tp2547
I0
s(g26
g60
tp2548
I0
s(g87
g74
tp2549
I0
s(g202
g108
tp2550
I0
s(g32
g65
tp2551
I0
s(g38
g241
tp2552
I0
s(g56
g26
tp2553
I0
s(g76
g49
tp2554
I0
s(g84
g109
tp2555
I0
s(g241
g44
tp2556
I0
s(g41
g87
tp2557
I0
s(g126
g134
tp2558
I0
s(g103
g267
tp2559
I0
s(g50
g105
tp2560
I0
s(g199
g218
tp2561
I0
s(g94
g15
tp2562
I0
s(g96
g70
tp2563
I0
s(g118
g199
tp2564
I0
s(g74
g202
tp2565
I0
s(g52
g45
tp2566
I0
s(g65
g50
tp2567
I0
s(g62
g17
tp2568
I0
s(g45
g80
tp2569
I0
s(g27
g105
tp2570
I0
s(g123
g90
tp2571
I0
s(g108
g87
tp2572
I0
s(g67
g276
tp2573
I0
s(g276
g218
tp2574
I0
s(g78
g41
tp2575
I0
s(g123
g241
tp2576
I0
s(g8
g49
tp2577
I0
s(g99
g39
tp2578
I0
s(g123
g27
tp2579
I0
s(g109
g3
tp2580
I0
s(g202
g199
tp2581
I0
s(g202
g15
tp2582
I0
s(g15
g44
tp2583
I0
s(g36
g15
tp2584
I0
s(g210
g24
tp2585
I0
s(g218
g44
tp2586
I0
s(g60
g15
tp2587
I0
s(g11
g68
tp2588
I0
s(g84
g87
tp2589
I0
s(g9
g49
tp2590
I0
s(g60
g24
tp2591
I0
s(g26
g111
tp2592
I0
s(g56
g99
tp2593
I0
s(g78
g84
tp2594
I0
s(g45
g113
tp2595
I0
s(g44
g276
tp2596
I0
s(g14
g3
tp2597
I0
s(g111
g8
tp2598
I0
s(g115
g8
tp2599
I0
s(g74
g241
tp2600
I0
s(g123
g276
tp2601
I0
s(g44
g39
tp2602
I0
s(g6
g15
tp2603
I0
s(g52
g94
tp2604
I0
s(g129
g2
tp2605
I0
s(g36
g50
tp2606
I0
s(g41
g47
tp2607
I0
s(g42
g109
tp2608
I0
s(g58
g26
tp2609
I0
s(g15
g173
tp2610
I0
s(g12
g56
tp2611
I0
s(g23
g64
tp2612
I0
s(g44
g27
tp2613
I0
s(g18
g172
tp2614
I0
s(g172
g24
tp2615
I0
s(g241
g87
tp2616
I0
s(g70
g172
tp2617
I0
s(g6
g240
tp2618
I0
s(g202
g26
tp2619
I0
s(g163
g41
tp2620
I0
s(g108
g29
tp2621
I0
s(g123
g68
tp2622
I0
s(g173
g82
tp2623
I0
s(g96
g241
tp2624
I0
s(g240
g90
tp2625
I0
s(g2
g116
tp2626
I0
s(g199
g80
tp2627
I0
s(g96
g17
tp2628
I0
s(g2
g21
tp2629
I0
s(g111
g202
tp2630
F0.045454545454545456
s(g15
g70
tp2631
I0
s(g38
g21
tp2632
I0
s(g76
g80
tp2633
I0
s(g80
g29
tp2634
I0
s(g90
g123
tp2635
I0
s(g76
g56
tp2636
I0
s(g2
g214
tp2637
I0
s(g45
g240
tp2638
I0
s(g116
g5
tp2639
I0
s(g65
g105
tp2640
I0
s(g218
g21
tp2641
I0
s(g60
g87
tp2642
I0
s(g52
g276
tp2643
I0
s(g54
g89
tp2644
I0
s(g54
g74
tp2645
I0
s(g94
g52
tp2646
I0
s(g94
g78
tp2647
I0
s(g105
g18
tp2648
I0
s(g267
g74
tp2649
I0
s(g134
g14
tp2650
I0
s(g210
g80
tp2651
I0
s(g68
g76
tp2652
I0
s(g42
g52
tp2653
I0
s(g65
g56
tp2654
I0
s(g47
g56
tp2655
I0
s(g78
g31
tp2656
I0
s(g49
g42
tp2657
I0
s(g67
g105
tp2658
I0
s(g80
g118
tp2659
I0
s(g44
g96
tp2660
I0
s(g18
g65
tp2661
I0
s(g118
g42
tp2662
I0
s(g76
g124
tp2663
I0
s(g87
g29
tp2664
I0
s(g36
g49
tp2665
I0
s(g109
g18
tp2666
I0
s(g68
g78
tp2667
I0
s(g3
g23
tp2668
I0
s(g20
g118
tp2669
I0
s(g20
g60
tp2670
I0
s(g27
g44
tp2671
I0
s(g36
g74
tp2672
I0
s(g78
g276
tp2673
I0
s(g109
g173
tp2674
I0
s(g6
g111
tp2675
I0
s(g36
g126
tp2676
I0
s(g54
g44
tp2677
I0
s(g123
g45
tp2678
I0
s(g113
g42
tp2679
I0
s(g90
g17
tp2680
I0
s(g56
g27
tp2681
I0
s(g62
g18
tp2682
I0
s(g24
g38
tp2683
I0
s(g126
g105
tp2684
I0
s(g89
g50
tp2685
I0
s(g18
g58
tp2686
I0
s(g58
g68
tp2687
I0
s(g47
g65
tp2688
F0.50931677018633537
s(g240
g105
tp2689
I0
s(g78
g202
tp2690
I0
s(g67
g36
tp2691
I0
s(g105
g6
tp2692
I0
s(g123
g99
tp2693
I0
s(g90
g41
tp2694
I0
s(g129
g210
tp2695
I0
s(g202
g90
tp2696
I0
s(g218
g23
tp2697
I0
s(g36
g202
tp2698
I0
s(g38
g74
tp2699
I0
s(g2
g38
tp2700
I0
s(g62
g20
tp2701
I0
s(g123
g172
tp2702
I0
s(g210
g26
tp2703
I0
s(g68
g12
tp2704
I0
s(g172
g62
tp2705
I0
s(g67
g42
tp2706
I0
s(g50
g52
tp2707
I0
s(g123
g18
tp2708
I0
s(g199
g76
tp2709
I0
s(g15
g74
tp2710
I0
s(g47
g11
tp2711
I0
s(g76
g116
tp2712
I0
s(g103
g241
tp2713
I0
s(g240
g14
tp2714
I0
s(g267
g9
tp2715
I0
s(g94
g20
tp2716
I0
s(g52
g84
tp2717
I0
s(g50
g56
tp2718
I0
s(g111
g115
tp2719
I0
s(g123
g3
tp2720
I0
s(g50
g126
tp2721
I0
s(g47
g267
tp2722
I0
s(g240
g67
tp2723
I0
s(g50
g39
tp2724
I0
s(g129
g45
tp2725
I0
s(g67
g31
tp2726
I0
s(g113
g18
tp2727
I0
s(g67
g126
tp2728
I0
s(g64
g214
tp2729
I0
s(g6
g124
tp2730
I0
s(g15
g18
tp2731
I0
s(g3
g111
tp2732
I0
s(g52
g36
tp2733
I0
s(g90
g74
tp2734
I0
s(g6
g17
tp2735
I0
s(g103
g3
tp2736
I0
s(g163
g267
tp2737
I0
s(g103
g124
tp2738
I0
s(g134
g214
tp2739
I0
s(g14
g44
tp2740
I0
s(g58
g202
tp2741
I0
s(g240
g70
tp2742
I0
s(g214
g116
tp2743
I0
s(g12
g68
tp2744
I0
s(g60
g62
tp2745
I0
s(g90
g39
tp2746
I0
s(g103
g199
tp2747
I0
s(g108
g6
tp2748
I0
s(g32
g163
tp2749
I0
s(g240
g18
tp2750
I0
s(g38
g38
tp2751
F0.58704453441295545
s(g50
g42
tp2752
I0
s(g129
g58
tp2753
I0
s(g45
g109
tp2754
I0
s(g123
g199
tp2755
I0
s(g103
g113
tp2756
I0
s(g68
g3
tp2757
I0
s(g8
g3
tp2758
I0
s(g67
g18
tp2759
I0
s(g199
g65
tp2760
I0
s(g36
g27
tp2761
I0
s(g82
g240
tp2762
I0
s(g123
g42
tp2763
I0
s(g56
g11
tp2764
I0
s(g123
g52
tp2765
I0
s(g108
g96
tp2766
I0
s(g87
g173
tp2767
I0
s(g6
g67
tp2768
I0
s(g14
g49
tp2769
I0
s(g124
g123
tp2770
I0
s(g210
g20
tp2771
I0
s(g18
g29
tp2772
I0
s(g45
g214
tp2773
I0
s(g47
g32
tp2774
I0
s(g2
g210
tp2775
I0
s(g49
g36
tp2776
I0
s(g173
g111
tp2777
I0
s(g64
g123
tp2778
I0
s(g38
g32
tp2779
I0
s(g94
g129
tp2780
I0
s(g49
g129
tp2781
I0
s(g50
g41
tp2782
I0
s(g44
g116
tp2783
I0
s(g27
g27
tp2784
F0.49032258064516127
s(g124
g34
tp2785
I0
s(g31
g115
tp2786
I0
s(g267
g29
tp2787
I0
s(g24
g78
tp2788
I0
s(g90
g14
tp2789
I0
s(g99
g76
tp2790
I0
s(g64
g218
tp2791
I0
s(g26
g76
tp2792
I0
s(g27
g50
tp2793
I0
s(g32
g78
tp2794
I0
s(g60
g9
tp2795
I0
s(g38
g27
tp2796
I0
s(g103
g89
tp2797
I0
s(g96
g210
tp2798
I0
s(g94
g39
tp2799
I0
s(g23
g20
tp2800
I0
s(g31
g113
tp2801
I0
s(g218
g34
tp2802
I0
s(g31
g45
tp2803
I0
s(g116
g31
tp2804
I0
s(g116
g116
tp2805
F0.48717948717948717
s(g44
g32
tp2806
I0
s(g78
g3
tp2807
I0
s(g68
g64
tp2808
I0
s(g23
g90
tp2809
I0
s(g108
g129
tp2810
I0
s(g108
g173
tp2811
I0
s(g52
g129
tp2812
I0
s(g27
g45
tp2813
I0
s(g65
g70
tp2814
I0
s(g67
g214
tp2815
I0
s(g11
g96
tp2816
I0
s(g26
g2
tp2817
I0
s(g241
g29
tp2818
I0
s(g23
g27
tp2819
I0
s(g56
g20
tp2820
I0
s(g163
g15
tp2821
I0
s(g111
g9
tp2822
I0
s(g240
g60
tp2823
I0
s(g76
g74
tp2824
I0
s(g11
g240
tp2825
I0
s(g124
g52
tp2826
I0
s(g3
g18
tp2827
I0
s(g90
g210
tp2828
I0
s(g163
g26
tp2829
I0
s(g202
g42
tp2830
I0
s(g105
g96
tp2831
I0
s(g20
g45
tp2832
I0
s(g210
g39
tp2833
I0
s(g2
g44
tp2834
I0
s(g5
g118
tp2835
I0
s(g50
g129
tp2836
I0
s(g14
g124
tp2837
I0
s(g94
g41
tp2838
I0
s(g44
g267
tp2839
I0
s(g27
g134
tp2840
I0
s(g276
g172
tp2841
I0
s(g241
g105
tp2842
I0
s(g84
g124
tp2843
I0
s(g34
g126
tp2844
I0
s(g6
g78
tp2845
I0
s(g68
g241
tp2846
I0
s(g74
g84
tp2847
I0
s(g52
g23
tp2848
I0
s(g84
g199
tp2849
I0
s(g108
g23
tp2850
I0
s(g32
g96
tp2851
I0
s(g109
g76
tp2852
I0
s(g111
g5
tp2853
I0
s(g39
g99
tp2854
I0
s(g96
g105
tp2855
I0
s(g18
g126
tp2856
I0
s(g210
g103
tp2857
I0
s(g23
g78
tp2858
I0
s(g44
g87
tp2859
I0
s(g32
g11
tp2860
I0
s(g126
g67
tp2861
I0
s(g111
g62
tp2862
I0
s(g210
g108
tp2863
I0
s(g11
g202
tp2864
I0
s(g2
g103
tp2865
I0
s(g65
g2
tp2866
I0
s(g12
g82
tp2867
I0
s(g41
g39
tp2868
I0
s(g173
g199
tp2869
I0
s(g15
g27
tp2870
I0
s(g87
g56
tp2871
I0
s(g118
g87
tp2872
I0
s(g31
g210
tp2873
I0
s(g3
g42
tp2874
I0
s(g50
g54
tp2875
I0
s(g52
g39
tp2876
I0
s(g20
g124
tp2877
I0
s(g241
g123
tp2878
I0
s(g199
g123
tp2879
I0
s(g96
g14
tp2880
I0
s(g124
g134
tp2881
I0
s(g47
g41
tp2882
I0
s(g49
g23
tp2883
I0
s(g58
g70
tp2884
I0
s(g17
g65
tp2885
I0
s(g99
g111
tp2886
I0
s(g276
g49
tp2887
I0
s(g84
g12
tp2888
I0
s(g52
g218
tp2889
I0
s(g54
g116
tp2890
I0
s(g241
g218
tp2891
I0
s(g105
g163
tp2892
I0
s(g214
g111
tp2893
I0
s(g172
g78
tp2894
I0
s(g9
g9
tp2895
F0.80040733197556013
s(g68
g31
tp2896
I0
s(g39
g26
tp2897
I0
s(g64
g18
tp2898
I0
s(g27
g124
tp2899
I0
s(g42
g267
tp2900
I0
s(g87
g64
tp2901
I0
s(g32
g202
tp2902
I0
s(g70
g70
tp2903
F0.48205128205128206
s(g58
g58
tp2904
F0.50495049504950495
s(g17
g241
tp2905
I0
s(g9
g115
tp2906
I0
s(g134
g50
tp2907
I0
s(g62
g267
tp2908
I0
s(g36
g56
tp2909
I0
s(g24
g267
tp2910
I0
s(g31
g118
tp2911
I0
s(g67
g12
tp2912
I0
s(g74
g70
tp2913
I0
s(g218
g9
tp2914
I0
s(g34
g84
tp2915
I0
s(g113
g96
tp2916
I0
s(g123
g214
tp2917
I0
s(g23
g23
tp2918
F0.6166666666666667
s(g202
g173
tp2919
I0
s(g68
g47
tp2920
I0
s(g78
g52
tp2921
I0
s(g118
g15
tp2922
I0
s(g241
g267
tp2923
I0
s(g199
g276
tp2924
I0
s(g267
g218
tp2925
I0
s(g118
g126
tp2926
I0
s(g5
g74
tp2927
I0
s(g172
g34
tp2928
I0
s(g38
g82
tp2929
I0
s(g210
g94
tp2930
I0
s(g134
g276
tp2931
I0
s(g173
g24
tp2932
I0
s(g78
g56
tp2933
I0
s(g31
g44
tp2934
I0
s(g52
g9
tp2935
I0
s(g36
g54
tp2936
I0
s(g34
g41
tp2937
I0
s(g276
g23
tp2938
I0
s(g6
g116
tp2939
I0
s(g199
g29
tp2940
I0
s(g84
g96
tp2941
I0
s(g126
g18
tp2942
I0
s(g8
g214
tp2943
I0
s(g17
g52
tp2944
I0
s(g17
g44
tp2945
I0
s(g18
g21
tp2946
I0
s(g34
g240
tp2947
I0
s(g24
g47
tp2948
I0
s(g15
g267
tp2949
I0
s(g80
g80
tp2950
F0.46153846153846156
s(g36
g60
tp2951
I0
s(g58
g163
tp2952
I0
s(g38
g99
tp2953
I0
s(g240
g115
tp2954
I0
s(g23
g113
tp2955
I0
s(g21
g118
tp2956
I0
s(g2
g17
tp2957
I0
s(g113
g80
tp2958
I0
s(g99
g17
tp2959
I0
s(g76
g111
tp2960
I0
s(g199
g42
tp2961
I0
s(g126
g9
tp2962
I0
s(g49
g108
tp2963
I0
s(g67
g21
tp2964
I0
s(g124
g115
tp2965
I0
s(g116
g45
tp2966
I0
s(g84
g17
tp2967
I0
s(g5
g36
tp2968
I0
s(g108
g89
tp2969
I0
s(g17
g11
tp2970
I0
s(g90
g38
tp2971
I0
s(g105
g32
tp2972
F0.38461538461538464
s(g99
g82
tp2973
I0
s(g84
g241
tp2974
I0
s(g23
g74
tp2975
I0
s(g67
g54
tp2976
I0
s(g41
g240
tp2977
I0
s(g87
g276
tp2978
I0
s(g94
g94
tp2979
F0.5
s(g218
g80
tp2980
I0
s(g50
g24
tp2981
I0
s(g49
g116
tp2982
I0
s(g60
g23
tp2983
I0
s(g14
g32
tp2984
I0
s(g17
g108
tp2985
I0
s(g41
g60
tp2986
I0
s(g109
g49
tp2987
I0
s(g3
g36
tp2988
I0
s(g82
g64
tp2989
I0
s(g38
g49
tp2990
I0
s(g103
g99
tp2991
I0
s(g76
g241
tp2992
I0
s(g68
g172
tp2993
I0
s(g44
g34
tp2994
I0
s(g87
g50
tp2995
I0
s(g113
g17
tp2996
I0
s(g18
g34
tp2997
I0
s(g96
g11
tp2998
I0
s(g116
g218
tp2999
I0
s(g36
g12
tp3000
I0
s(g34
g94
tp3001
I0
s(g21
g123
tp3002
I0
s(g50
g108
tp3003
I0
s(g27
g2
tp3004
I0
s(g113
g54
tp3005
I0
s(g173
g99
tp3006
I0
s(g65
g123
tp3007
I0
s(g123
g14
tp3008
I0
s(g82
g11
tp3009
I0
s(g52
g199
tp3010
I0
s(g23
g70
tp3011
I0
s(g124
g210
tp3012
I0
s(g111
g99
tp3013
I0
s(g78
g74
tp3014
I0
s(g124
g6
tp3015
I0
s(g27
g62
tp3016
I0
s(g109
g218
tp3017
I0
s(g8
g241
tp3018
I0
s(g115
g2
tp3019
I0
s(g124
g173
tp3020
I0
s(g62
g82
tp3021
I0
s(g218
g36
tp3022
I0
s(g241
g56
tp3023
I0
s(g163
g103
tp3024
I0
s(g103
g62
tp3025
I0
s(g70
g23
tp3026
I0
s(g41
g12
tp3027
I0
s(g202
g49
tp3028
I0
s(g115
g23
tp3029
I0
s(g267
g64
tp3030
I0
s(g90
g5
tp3031
I0
s(g276
g126
tp3032
I0
s(g115
g172
tp3033
I0
s(g82
g111
tp3034
I0
s(g78
g240
tp3035
I0
s(g87
g113
tp3036
I0
s(g94
g173
tp3037
I0
s(g267
g276
tp3038
I0
s(g68
g199
tp3039
I0
s(g17
g50
tp3040
I0
s(g115
g80
tp3041
I0
s(g54
g163
tp3042
I0
s(g96
g202
tp3043
I0
s(g109
g8
tp3044
I0
s(g2
g29
tp3045
I0
s(g199
g41
tp3046
I0
s(g172
g76
tp3047
I0
s(g202
g65
tp3048
I0
s(g20
g12
tp3049
I0
s(g70
g41
tp3050
I0
s(g240
g52
tp3051
I0
s(g76
g15
tp3052
I0
s(g87
g105
tp3053
I0
s(g68
g210
tp3054
I0
s(g124
g31
tp3055
I0
s(g3
g118
tp3056
I0
s(g3
g39
tp3057
I0
s(g89
g45
tp3058
I0
s(g163
g129
tp3059
I0
s(g163
g38
tp3060
I0
s(g39
g27
tp3061
I0
s(g5
g126
tp3062
I0
s(g103
g96
tp3063
I0
s(g70
g14
tp3064
I0
s(g36
g68
tp3065
I0
s(g172
g96
tp3066
I0
s(g96
g18
tp3067
I0
s(g199
g84
tp3068
I0
s(g49
g173
tp3069
I0
s(g14
g67
tp3070
I0
s(g44
g21
tp3071
I0
s(g94
g108
tp3072
I0
s(g80
g8
tp3073
I0
s(g9
g210
tp3074
I0
s(g129
g23
tp3075
I0
s(g240
g76
tp3076
I0
s(g118
g90
tp3077
I0
s(g96
g49
tp3078
I0
s(g34
g210
tp3079
I0
s(g56
g32
tp3080
I0
s(g68
g80
tp3081
I0
s(g50
g70
tp3082
I0
s(g111
g24
tp3083
I0
s(g108
g113
tp3084
I0
s(g5
g42
tp3085
I0
s(g39
g276
tp3086
I0
s(g163
g12
tp3087
I0
s(g76
g276
tp3088
I0
s(g21
g218
tp3089
I0
s(g60
g109
tp3090
I0
s(g11
g26
tp3091
I0
s(g84
g32
tp3092
I0
s(g18
g80
tp3093
I0
s(g20
g8
tp3094
I0
s(g62
g109
tp3095
I0
s(g36
g105
tp3096
I0
s(g276
g89
tp3097
I0
s(g68
g50
tp3098
I0
s(g108
g5
tp3099
I0
s(g54
g80
tp3100
I0
s(g50
g173
tp3101
I0
s(g82
g45
tp3102
I0
s(g126
g173
tp3103
I0
s(g87
g82
tp3104
I0
s(g241
g70
tp3105
I0
s(g62
g214
tp3106
I0
s(g64
g36
tp3107
I0
s(g31
g109
tp3108
I0
s(g49
g123
tp3109
I0
s(g36
g84
tp3110
I0
s(g6
g118
tp3111
I0
s(g14
g8
tp3112
I0
s(g39
g78
tp3113
F0.54545454545454541
s(g60
g202
tp3114
I0
s(g82
g109
tp3115
I0
s(g99
g62
tp3116
I0
s(g49
g94
tp3117
I0
s(g29
g94
tp3118
I0
s(g52
g47
tp3119
I0
s(g65
g23
tp3120
I0
s(g109
g34
tp3121
I0
s(g89
g23
tp3122
I0
s(g15
g241
tp3123
I0
s(g172
g52
tp3124
I0
s(g62
g199
tp3125
I0
s(g44
g124
tp3126
I0
s(g105
g126
tp3127
I0
s(g70
g24
tp3128
I0
s(g45
g115
tp3129
I0
s(g41
g29
tp3130
I0
s(g47
g118
tp3131
I0
s(g78
g126
tp3132
I0
s(g27
g99
tp3133
I0
s(g173
g108
tp3134
I0
s(g82
g116
tp3135
I0
s(g82
g76
tp3136
I0
s(g31
g11
tp3137
I0
s(g24
g74
tp3138
I0
s(g87
g5
tp3139
I0
s(g64
g111
tp3140
I0
s(g65
g115
tp3141
I0
s(g47
g52
tp3142
I0
s(g65
g78
tp3143
I0
s(g240
g27
tp3144
I0
s(g116
g105
tp3145
I0
s(g32
g199
tp3146
I0
s(g276
g32
tp3147
I0
s(g31
g78
tp3148
I0
s(g18
g20
tp3149
I0
s(g173
g23
tp3150
I0
s(g134
g94
tp3151
I0
s(g62
g24
tp3152
I0
s(g76
g70
tp3153
I0
s(g11
g31
tp3154
I0
s(g41
g103
tp3155
I0
s(g67
g27
tp3156
I0
s(g24
g173
tp3157
I0
s(g267
g3
tp3158
I0
s(g27
g67
tp3159
I0
s(g34
g14
tp3160
I0
s(g8
g172
tp3161
I0
s(g26
g199
tp3162
I0
s(g17
g76
tp3163
I0
s(g214
g70
tp3164
I0
s(g218
g78
tp3165
I0
s(g3
g89
tp3166
I0
s(g126
g267
tp3167
F0.33333333333333331
s(g18
g2
tp3168
I0
s(g202
g58
tp3169
I0
s(g89
g20
tp3170
I0
s(g26
g134
tp3171
I0
s(g103
g23
tp3172
I0
s(g78
g90
tp3173
I0
s(g18
g105
tp3174
I0
s(g41
g2
tp3175
I0
s(g56
g56
tp3176
F0.5714285714285714
s(g23
g3
tp3177
I0
s(g90
g11
tp3178
I0
s(g64
g199
tp3179
I0
s(g116
g70
tp3180
I0
s(g113
g99
tp3181
I0
s(g129
g36
tp3182
I0
s(g41
g118
tp3183
I0
s(g202
g23
tp3184
I0
s(g11
g199
tp3185
I0
s(g199
g108
tp3186
I0
s(g42
g123
tp3187
I0
s(g41
g111
tp3188
I0
s(g134
g41
tp3189
I0
s(g214
g36
tp3190
I0
s(g115
g115
tp3191
F0.58744394618834084
s(g14
g276
tp3192
I0
s(g202
g36
tp3193
I0
s(g90
g124
tp3194
I0
s(g241
g74
tp3195
I0
s(g45
g31
tp3196
I0
s(g82
g5
tp3197
I0
s(g124
g67
tp3198
I0
s(g68
g65
tp3199
I0
s(g64
g15
tp3200
I0
s(g12
g173
tp3201
I0
s(g39
g3
tp3202
I0
s(g67
g99
tp3203
I0
s(g14
g47
tp3204
I0
s(g11
g74
tp3205
I0
s(g96
g24
tp3206
I0
s(g76
g84
tp3207
I0
s(g214
g39
tp3208
I0
s(g214
g62
tp3209
I0
s(g74
g172
tp3210
I0
s(g32
g87
tp3211
I0
s(g50
g74
tp3212
I0
s(g105
g123
tp3213
I0
s(g113
g62
tp3214
I0
s(g12
g38
tp3215
I0
s(g199
g15
tp3216
I0
s(g62
g9
tp3217
I0
s(g109
g134
tp3218
I0
s(g8
g38
tp3219
I0
s(g11
g18
tp3220
I0
s(g84
g76
tp3221
I0
s(g202
g105
tp3222
I0
s(g49
g18
tp3223
I0
s(g68
g89
tp3224
I0
s(g74
g111
tp3225
I0
s(g74
g94
tp3226
I0
s(g32
g134
tp3227
I0
s(g12
g54
tp3228
I0
s(g56
g9
tp3229
I0
s(g241
g78
tp3230
I0
s(g6
g109
tp3231
I0
s(g29
g31
tp3232
I0
s(g90
g70
tp3233
I0
s(g58
g3
tp3234
I0
s(g134
g87
tp3235
I0
s(g2
g115
tp3236
I0
s(g34
g32
tp3237
I0
s(g90
g103
tp3238
I0
s(g84
g163
tp3239
I0
s(g124
g11
tp3240
I0
s(g8
g103
tp3241
I0
s(g42
g240
tp3242
I0
s(g47
g70
tp3243
I0
s(g27
g90
tp3244
I0
s(g62
g42
tp3245
I0
s(g27
g47
tp3246
I0
s(g129
g173
tp3247
I0
s(g34
g60
tp3248
I0
s(g82
g49
tp3249
I0
s(g2
g240
tp3250
I0
s(g103
g42
tp3251
I0
s(g113
g70
tp3252
I0
s(g24
g5
tp3253
I0
s(g124
g3
tp3254
I0
s(g267
g14
tp3255
I0
s(g103
g60
tp3256
I0
s(g82
g113
tp3257
I0
s(g116
g60
tp3258
I0
s(g84
g5
tp3259
I0
s(g47
g78
tp3260
I0
s(g9
g54
tp3261
I0
s(g42
g74
tp3262
I0
s(g26
g82
tp3263
I0
s(g172
g9
tp3264
I0
s(g56
g276
tp3265
I0
s(g54
g62
tp3266
I0
s(g62
g94
tp3267
I0
s(g115
g24
tp3268
I0
s(g56
g103
tp3269
I0
s(g78
g70
tp3270
I0
s(g163
g65
tp3271
I0
s(g241
g82
tp3272
I0
s(g70
g116
tp3273
I0
s(g56
g62
tp3274
I0
s(g41
g45
tp3275
I0
s(g103
g123
tp3276
I0
s(g267
g56
tp3277
I0
s(g36
g64
tp3278
I0
s(g96
g54
tp3279
I0
s(g199
g116
tp3280
I0
s(g276
g113
tp3281
I0
s(g218
g29
tp3282
I0
s(g163
g87
tp3283
I0
s(g116
g54
tp3284
I0
s(g42
g18
tp3285
I0
s(g84
g58
tp3286
I0
s(g90
g84
tp3287
I0
s(g29
g11
tp3288
I0
s(g218
g47
tp3289
I0
s(g82
g267
tp3290
I0
s(g17
g172
tp3291
I0
s(g76
g42
tp3292
I0
s(g70
g214
tp3293
I0
s(g8
g116
tp3294
I0
s(g18
g60
tp3295
I0
s(g36
g70
tp3296
I0
s(g70
g17
tp3297
I0
s(g89
g36
tp3298
I0
s(g8
g163
tp3299
I0
s(g240
g42
tp3300
I0
s(g90
g163
tp3301
I0
s(g108
g21
tp3302
I0
s(g6
g50
tp3303
I0
s(g163
g105
tp3304
I0
s(g94
g2
tp3305
I0
s(g54
g9
tp3306
I0
s(g15
g94
tp3307
I0
s(g267
g199
tp3308
I0
s(g32
g27
tp3309
I0
s(g90
g240
tp3310
I0
s(g78
g113
tp3311
I0
s(g41
g94
tp3312
I0
s(g54
g70
tp3313
I0
s(g23
g42
tp3314
I0
s(g5
g15
tp3315
I0
s(g64
g49
tp3316
I0
s(g47
g115
tp3317
I0
s(g108
g76
tp3318
I0
s(g84
g94
tp3319
I0
s(g240
g126
tp3320
I0
s(g105
g76
tp3321
I0
s(g82
g47
tp3322
I0
s(g32
g34
tp3323
I0
s(g276
g12
tp3324
I0
s(g89
g38
tp3325
I0
s(g50
g29
tp3326
I0
s(g173
g36
tp3327
I0
s(g44
g65
tp3328
I0
s(g129
g3
tp3329
I0
s(g173
g210
tp3330
I0
s(g78
g11
tp3331
I0
s(g62
g173
tp3332
I0
s(g109
g6
tp3333
I0
s(g56
g118
tp3334
F0.13824884792626729
s(g62
g96
tp3335
I0
s(g23
g29
tp3336
I0
s(g115
g41
tp3337
I0
s(g3
g74
tp3338
I0
s(g199
g6
tp3339
I0
s(g38
g56
tp3340
I0
s(g126
g214
tp3341
I0
s(g15
g90
tp3342
I0
s(g74
g116
tp3343
I0
s(g42
g96
tp3344
I0
s(g123
g20
tp3345
I0
s(g41
g109
tp3346
I0
s(g8
g6
tp3347
F0.29816513761467889
s(g12
g199
tp3348
I0
s(g82
g23
tp3349
I0
s(g78
g64
tp3350
I0
s(g39
g87
tp3351
I0
s(g2
g14
tp3352
I0
s(g44
g47
tp3353
I0
s(g2
g64
tp3354
I0
s(g58
g44
tp3355
I0
s(g74
g74
tp3356
F0.56561085972850678
s(g109
g118
tp3357
I0
s(g70
g202
tp3358
I0
s(g123
g26
tp3359
I0
s(g173
g202
tp3360
I0
s(g8
g31
tp3361
I0
s(g124
g8
tp3362
I0
s(g108
g41
tp3363
I0
s(g210
g14
tp3364
I0
s(g99
g202
tp3365
I0
s(g126
g199
tp3366
I0
s(g84
g45
tp3367
I0
s(g52
g76
tp3368
I0
s(g124
g116
tp3369
I0
s(g24
g32
tp3370
I0
s(g9
g39
tp3371
I0
s(g34
g109
tp3372
I0
s(g111
g199
tp3373
I0
s(g99
g96
tp3374
I0
s(g70
g84
tp3375
I0
s(g80
g31
tp3376
I0
s(g38
g50
tp3377
I0
s(g74
g12
tp3378
I0
s(g173
g62
tp3379
I0
s(g65
g44
tp3380
I0
s(g50
g20
tp3381
I0
s(g276
g68
tp3382
I0
s(g202
g18
tp3383
I0
s(g99
g124
tp3384
I0
s(g5
g94
tp3385
I0
s(g99
g45
tp3386
I0
s(g94
g29
tp3387
I0
s(g47
g123
tp3388
I0
s(g58
g65
tp3389
I0
s(g210
g41
tp3390
I0
s(g126
g24
tp3391
I0
s(g42
g202
tp3392
I0
s(g34
g123
tp3393
I0
s(g5
g62
tp3394
I0
s(g27
g20
tp3395
I0
s(g199
g68
tp3396
I0
s(g173
g8
tp3397
I0
s(g115
g89
tp3398
I0
s(g41
g163
tp3399
I0
s(g49
g76
tp3400
I0
s(g67
g129
tp3401
I0
s(g70
g20
tp3402
I0
s(g240
g214
tp3403
I0
s(g96
g65
tp3404
I0
s(g21
g173
tp3405
I0
s(g27
g8
tp3406
I0
s(g218
g6
tp3407
I0
s(g124
g29
tp3408
I0
s(g134
g241
tp3409
I0
s(g21
g267
tp3410
I0
s(g105
g80
tp3411
I0
s(g94
g42
tp3412
I0
s(g31
g202
tp3413
I0
s(g78
g78
tp3414
F0.47826086956521741
s(g240
g109
tp3415
I0
s(g39
g47
tp3416
I0
s(g3
g27
tp3417
I0
s(g126
g31
tp3418
I0
s(g9
g134
tp3419
I0
s(g32
g31
tp3420
I0
s(g87
g47
tp3421
I0
s(g18
g115
tp3422
I0
s(g118
g96
tp3423
I0
s(g74
g89
tp3424
I0
s(g68
g96
tp3425
I0
s(g41
g9
tp3426
I0
s(g240
g240
tp3427
F0.48823529411764705
s(g240
g199
tp3428
I0
s(g124
g60
tp3429
I0
s(g76
g34
tp3430
I0
s(g18
g78
tp3431
I0
s(g89
g5
tp3432
I0
s(g163
g60
tp3433
I0
s(g241
g84
tp3434
I0
s(g96
g267
tp3435
I0
s(g9
g38
tp3436
I0
s(g49
g39
tp3437
I0
s(g76
g218
tp3438
I0
s(g17
g9
tp3439
I0
s(g42
g116
tp3440
I0
s(g41
g78
tp3441
I0
s(g27
g202
tp3442
F0.50967741935483868
s(g115
g218
tp3443
I0
s(g6
g129
tp3444
I0
s(g210
g45
tp3445
I0
s(g172
g129
tp3446
I0
s(g26
g276
tp3447
I0
s(g14
g54
tp3448
I0
s(g12
g49
tp3449
I0
s(g49
g20
tp3450
I0
s(g24
g99
tp3451
I0
s(g3
g108
tp3452
I0
s(g99
g44
tp3453
I0
s(g84
g24
tp3454
I0
s(g105
g113
tp3455
I0
s(g68
g103
tp3456
I0
s(g47
g58
tp3457
I0
s(g5
g87
tp3458
I0
s(g29
g214
tp3459
I0
s(g44
g62
tp3460
I0
s(g39
g68
tp3461
I0
s(g60
g34
tp3462
I0
s(g8
g23
tp3463
I0
s(g60
g41
tp3464
I0
s(g65
g210
tp3465
I0
s(g36
g3
tp3466
I0
s(g80
g276
tp3467
I0
s(g12
g218
tp3468
I0
s(g11
g218
tp3469
I0
s(g240
g56
tp3470
I0
s(g29
g23
tp3471
I0
s(g96
g58
tp3472
I0
s(g99
g14
tp3473
I0
s(g34
g103
tp3474
I0
s(g12
g58
tp3475
I0
s(g87
g218
tp3476
I0
s(g56
g21
tp3477
I0
s(g6
g14
tp3478
I0
s(g24
g82
tp3479
I0
s(g87
g94
tp3480
I0
s(g20
g67
tp3481
I0
s(g276
g50
tp3482
I0
s(g47
g172
tp3483
I0
s(g24
g65
tp3484
I0
s(g12
g90
tp3485
I0
s(g129
g62
tp3486
I0
s(g20
g56
tp3487
I0
s(g52
g15
tp3488
I0
s(g49
g134
tp3489
I0
s(g20
g76
tp3490
I0
s(g67
g65
tp3491
I0
s(g89
g68
tp3492
I0
s(g47
g90
tp3493
I0
s(g38
g44
tp3494
I0
s(g2
g123
tp3495
I0
s(g210
g68
tp3496
I0
s(g58
g31
tp3497
I0
s(g87
g116
tp3498
I0
s(g12
g99
tp3499
I0
s(g49
g199
tp3500
I0
s(g68
g84
tp3501
I0
s(g8
g44
tp3502
I0
s(g78
g65
tp3503
I0
s(g17
g214
tp3504
I0
s(g17
g210
tp3505
I0
s(g126
g42
tp3506
I0
s(g2
g76
tp3507
I0
s(g29
g113
tp3508
I0
s(g11
g116
tp3509
I0
s(g129
g99
tp3510
I0
s(g52
g12
tp3511
I0
s(g115
g267
tp3512
I0
s(g109
g26
tp3513
I0
s(g38
g105
tp3514
I0
s(g115
g39
tp3515
I0
s(g70
g31
tp3516
I0
s(g276
g82
tp3517
I0
s(g21
g111
tp3518
I0
s(g115
g118
tp3519
I0
s(g84
g15
tp3520
I0
s(g202
g68
tp3521
I0
s(g49
g15
tp3522
I0
s(g5
g24
tp3523
I0
s(g126
g62
tp3524
I0
s(g202
g218
tp3525
I0
s(g126
g39
tp3526
I0
s(g20
g84
tp3527
I0
s(g74
g9
tp3528
I0
s(g173
g115
tp3529
I0
s(g94
g21
tp3530
I0
s(g5
g276
tp3531
I0
s(g105
g115
tp3532
I0
s(g126
g276
tp3533
I0
s(g32
g38
tp3534
I0
s(g14
g12
tp3535
F0.0084985835694051
s(g80
g34
tp3536
I0
s(g111
g68
tp3537
I0
s(g29
g50
tp3538
I0
s(g118
g27
tp3539
I0
s(g76
g134
tp3540
I0
s(g109
g27
tp3541
I0
s(g24
g210
tp3542
I0
s(g32
g126
tp3543
I0
s(g9
g163
tp3544
I0
s(g214
g124
tp3545
I0
s(g109
g113
tp3546
I0
s(g64
g84
tp3547
I0
s(g134
g39
tp3548
F0.5
s(g90
g108
tp3549
I0
s(g14
g99
tp3550
I0
s(g267
g108
tp3551
I0
s(g52
g78
tp3552
I0
s(g80
g45
tp3553
I0
s(g74
g44
tp3554
I0
s(g103
g172
tp3555
I0
s(g84
g129
tp3556
I0
s(g60
g44
tp3557
I0
s(g21
g64
tp3558
I0
s(g14
g58
tp3559
I0
s(g82
g218
tp3560
I0
s(g118
g276
tp3561
I0
s(g27
g89
tp3562
I0
s(g111
g67
tp3563
I0
s(g124
g105
tp3564
I0
s(g67
g58
tp3565
I0
s(g39
g218
tp3566
I0
s(g68
g163
tp3567
I0
s(g58
g115
tp3568
I0
s(g78
g67
tp3569
I0
s(g50
g64
tp3570
I0
s(g34
g76
tp3571
I0
s(g60
g68
tp3572
I0
s(g52
g111
tp3573
I0
s(g12
g78
tp3574
I0
s(g39
g58
tp3575
I0
s(g6
g64
tp3576
I0
s(g64
g6
tp3577
F1
s(g210
g21
tp3578
I0
s(g134
g103
tp3579
I0
s(g41
g32
tp3580
I0
s(g89
g124
tp3581
I0
s(g218
g52
tp3582
I0
s(g18
g6
tp3583
I0
s(g82
g34
tp3584
I0
s(g15
g26
tp3585
I0
s(g70
g163
tp3586
I0
s(g21
g87
tp3587
I0
s(g31
g3
tp3588
I0
s(g26
g26
tp3589
F0.60852713178294571
s(g70
g115
tp3590
I0
s(g50
g62
tp3591
F0.52020202020202022
s(g47
g50
tp3592
I0
s(g173
g134
tp3593
I0
s(g105
g47
tp3594
I0
s(g2
g80
tp3595
I0
s(g108
g123
tp3596
I0
s(g124
g65
tp3597
I0
s(g52
g123
tp3598
F0.23778501628664495
s(g240
g3
tp3599
I0
s(g15
g54
tp3600
I0
s(g26
g173
tp3601
I0
s(g240
g267
tp3602
I0
s(g64
g80
tp3603
I0
s(g21
g134
tp3604
I0
s(g62
g74
tp3605
I0
s(g31
g76
tp3606
I0
s(g241
g173
tp3607
I0
s(g267
g27
tp3608
I0
s(g60
g108
tp3609
I0
s(g15
g113
tp3610
I0
s(g78
g267
tp3611
I0
s(g113
g41
tp3612
I0
s(g31
g67
tp3613
I0
s(g49
g276
tp3614
I0
s(g6
g241
tp3615
I0
s(g23
g31
tp3616
I0
s(g111
g64
tp3617
I0
s(g134
g74
tp3618
I0
s(g60
g129
tp3619
I0
s(g32
g241
tp3620
I0
s(g64
g31
tp3621
I0
s(g65
g82
tp3622
I0
s(g78
g82
tp3623
I0
s(g267
g70
tp3624
I0
s(g67
g96
tp3625
I0
s(g108
g39
tp3626
I0
s(g56
g126
tp3627
I0
s(g64
g17
tp3628
I0
s(g80
g134
tp3629
I0
s(g214
g84
tp3630
I0
s(g241
g26
tp3631
I0
s(g113
g31
tp3632
I0
s(g50
g58
tp3633
I0
s(g21
g199
tp3634
I0
s(g49
g118
tp3635
I0
s(g99
g129
tp3636
I0
s(g45
g23
tp3637
I0
s(g87
g118
tp3638
I0
s(g94
g267
tp3639
I0
s(g267
g173
tp3640
I0
s(g113
g74
tp3641
I0
s(g21
g24
tp3642
I0
s(g36
g36
tp3643
I0
s(g129
g31
tp3644
I0
s(g62
g89
tp3645
I0
s(g134
g126
tp3646
I0
s(g9
g27
tp3647
I0
s(g31
g2
tp3648
I0
s(g173
g11
tp3649
I0
s(g62
g3
tp3650
I0
s(g218
g74
tp3651
I0
s(g38
g109
tp3652
I0
s(g74
g103
tp3653
I0
s(g5
g218
tp3654
I0
s(g134
g17
tp3655
I0
s(g134
g45
tp3656
I0
s(g78
g199
tp3657
I0
s(g3
g44
tp3658
I0
s(g89
g64
tp3659
I0
s(g111
g52
tp3660
I0
s(g56
g44
tp3661
I0
s(g113
g21
tp3662
I0
s(g52
g118
tp3663
I0
s(g36
g31
tp3664
I0
s(g68
g67
tp3665
I0
s(g9
g276
tp3666
I0
s(g42
g173
tp3667
I0
s(g163
g42
tp3668
I0
s(g62
g31
tp3669
I0
s(g80
g21
tp3670
I0
s(g113
g49
tp3671
I0
s(g34
g163
tp3672
I0
s(g113
g199
tp3673
I0
s(g14
g36
tp3674
I0
s(g202
g27
tp3675
I0
s(g210
g116
tp3676
I0
s(g267
g8
tp3677
I0
s(g89
g11
tp3678
I0
s(g115
g42
tp3679
I0
s(g267
g76
tp3680
I0
s(g172
g45
tp3681
I0
s(g9
g111
tp3682
I0
s(g26
g108
tp3683
I0
s(g42
g70
tp3684
I0
s(g64
g124
tp3685
I0
s(g116
g172
tp3686
I0
s(g38
g11
tp3687
I0
s(g24
g34
tp3688
I0
s(g44
g50
tp3689
I0
s(g67
g6
tp3690
I0
s(g54
g31
tp3691
I0
s(g15
g23
tp3692
I0
s(g96
g172
tp3693
I0
s(g240
g68
tp3694
I0
s(g99
g109
tp3695
I0
s(g267
g36
tp3696
I0
s(g90
g15
tp3697
I0
s(g56
g6
tp3698
I0
s(g60
g52
tp3699
I0
s(g27
g49
tp3700
I0
s(g90
g199
tp3701
I0
s(g44
g44
tp3702
F0.49342105263157893
s(g12
g18
tp3703
I0
s(g56
g210
tp3704
I0
s(g68
g8
tp3705
I0
s(g116
g129
tp3706
I0
s(g58
g172
tp3707
I0
s(g31
g94
tp3708
I0
s(g96
g96
tp3709
F0.5
s(g74
g87
tp3710
I0
s(g56
g36
tp3711
I0
s(g15
g68
tp3712
I0
s(g12
g24
tp3713
I0
s(g42
g199
tp3714
F0.20078740157480315
s(g108
g116
tp3715
I0
s(g67
g113
tp3716
I0
s(g47
g3
tp3717
I0
s(g42
g99
tp3718
I0
s(g32
g39
tp3719
I0
s(g74
g50
tp3720
I0
s(g20
g202
tp3721
I0
s(g124
g80
tp3722
I0
s(g240
g41
tp3723
I0
s(g14
g50
tp3724
I0
s(g240
g276
tp3725
I0
s(g60
g11
tp3726
I0
s(g113
g172
tp3727
I0
s(g36
g11
tp3728
I0
s(g74
g2
tp3729
I0
s(g173
g96
tp3730
I0
s(g45
g163
tp3731
I0
s(g68
g32
tp3732
I0
s(g115
g18
tp3733
I0
s(g124
g276
tp3734
I0
s(g70
g18
tp3735
F0.517948717948718
s(g74
g276
tp3736
I0
s(g9
g58
tp3737
I0
s(g52
g5
tp3738
I0
s(g202
g82
tp3739
I0
s(g58
g5
tp3740
I0
s(g9
g67
tp3741
I0
s(g32
g14
tp3742
I0
s(g109
g29
tp3743
I0
s(g11
g173
tp3744
I0
s(g76
g24
tp3745
I0
s(g34
g116
tp3746
I0
s(g52
g26
tp3747
I0
s(g214
g56
tp3748
I0
s(g76
g32
tp3749
I0
s(g42
g23
tp3750
I0
s(g240
g99
tp3751
I0
s(g17
g67
tp3752
I0
s(g56
g50
tp3753
I0
s(g67
g118
tp3754
I0
s(g12
g6
tp3755
I0
s(g58
g18
tp3756
I0
s(g78
g26
tp3757
I0
s(g62
g27
tp3758
I0
s(g2
g39
tp3759
I0
s(g9
g45
tp3760
I0
s(g173
g129
tp3761
I0
s(g199
g24
tp3762
I0
s(g109
g36
tp3763
I0
s(g80
g70
tp3764
I0
s(g11
g70
tp3765
I0
s(g23
g94
tp3766
I0
s(g214
g9
tp3767
I0
s(g62
g172
tp3768
I0
s(g47
g64
tp3769
I0
s(g118
g32
tp3770
I0
s(g214
g31
tp3771
I0
s(g36
g87
tp3772
I0
s(g50
g67
tp3773
I0
s(g89
g210
tp3774
I0
s(g54
g84
tp3775
I0
s(g36
g58
tp3776
I0
s(g276
g38
tp3777
I0
s(g27
g210
tp3778
I0
s(g118
g36
tp3779
I0
s(g39
g9
tp3780
I0
s(g62
g62
tp3781
F0.50480769230769229
s(g64
g20
tp3782
I0
s(g134
g11
tp3783
I0
s(g60
g240
tp3784
I0
s(g109
g68
tp3785
I0
s(g89
g6
tp3786
I0
s(g124
g12
tp3787
I0
s(g241
g50
tp3788
I0
s(g29
g163
tp3789
I0
s(g15
g34
tp3790
I0
s(g80
g173
tp3791
I0
s(g62
g276
tp3792
I0
s(g276
g56
tp3793
I0
s(g45
g58
tp3794
I0
s(g214
g210
tp3795
I0
s(g49
g103
tp3796
I0
s(g202
g29
tp3797
I0
s(g36
g20
tp3798
I0
s(g129
g49
tp3799
I0
s(g109
g21
tp3800
I0
s(g68
g87
tp3801
I0
s(g56
g113
tp3802
I0
s(g24
g108
tp3803
I0
s(g45
g99
tp3804
I0
s(g89
g129
tp3805
I0
s(g173
g52
tp3806
I0
s(g82
g78
tp3807
I0
s(g12
g26
tp3808
I0
s(g39
g36
tp3809
I0
s(g70
g124
tp3810
I0
s(g105
g116
tp3811
I0
s(g108
g267
tp3812
I0
s(g39
g23
tp3813
I0
s(g17
g26
tp3814
I0
s(g20
g49
tp3815
I0
s(g38
g58
tp3816
F0.41295546558704455
s(g65
g116
tp3817
I0
s(g60
g84
tp3818
I0
s(g15
g50
tp3819
I0
s(g23
g218
tp3820
I0
s(g123
g54
tp3821
I0
s(g163
g240
tp3822
I0
s(g15
g115
tp3823
I0
s(g123
g17
tp3824
I0
s(g34
g56
tp3825
I0
s(g82
g27
tp3826
I0
s(g34
g241
tp3827
I0
s(g54
g103
tp3828
I0
s(g99
g24
tp3829
I0
s(g26
g74
tp3830
I0
s(g163
g14
tp3831
I0
s(g129
g74
tp3832
I0
s(g24
g87
tp3833
I0
s(g29
g96
tp3834
I0
s(g94
g23
tp3835
I0
s(g21
g129
tp3836
I0
s(g118
g99
tp3837
I0
s(g34
g17
tp3838
I0
s(g87
g109
tp3839
I0
s(g218
g90
tp3840
I0
s(g20
g65
tp3841
I0
s(g240
g218
tp3842
I0
s(g11
g42
tp3843
I0
s(g24
g49
tp3844
I0
s(g267
g68
tp3845
I0
s(g90
g54
tp3846
I0
s(g44
g129
tp3847
I0
s(g29
g5
tp3848
I0
s(g32
g118
tp3849
I0
s(g15
g45
tp3850
I0
s(g26
g11
tp3851
I0
s(g94
g67
tp3852
I0
s(g126
g52
tp3853
I0
s(g23
g34
tp3854
I0
s(g115
g99
tp3855
F0.08520179372197309
s(g126
g111
tp3856
I0
s(g82
g82
tp3857
F0.5
s(g80
g38
tp3858
I0
s(g60
g241
tp3859
I0
s(g84
g240
tp3860
I0
s(g12
g2
tp3861
I0
s(g126
g21
tp3862
I0
s(g134
g105
tp3863
I0
s(g17
g99
tp3864
I0
s(g87
g267
tp3865
I0
s(g68
g41
tp3866
I0
s(g41
g17
tp3867
I0
s(g3
g38
tp3868
I0
s(g9
g82
tp3869
I0
s(g21
g65
tp3870
I0
s(g60
g103
tp3871
I0
s(g58
g241
tp3872
I0
s(g126
g74
tp3873
I0
s(g78
g18
tp3874
I0
s(g124
g214
tp3875
I0
s(g118
g123
tp3876
I0
s(g38
g34
tp3877
I0
s(g129
g172
tp3878
I0
s(g44
g60
tp3879
I0
s(g84
g210
tp3880
I0
s(g118
g24
tp3881
I0
s(g218
g99
tp3882
I0
s(g58
g76
tp3883
I0
s(g210
g126
tp3884
I0
s(g276
g64
tp3885
I0
s(g64
g41
tp3886
I0
s(g111
g134
tp3887
I0
s(g129
g78
tp3888
I0
s(g26
g202
tp3889
I0
s(g50
g199
tp3890
I0
s(g24
g29
tp3891
I0
s(g34
g15
tp3892
I0
s(g82
g108
tp3893
I0
s(g6
g199
tp3894
I0
s(g8
g58
tp3895
I0
s(g5
g27
tp3896
I0
s(g124
g113
tp3897
I0
s(g116
g41
tp3898
I0
s(g210
g17
tp3899
I0
s(g202
g78
tp3900
I0
s(g60
g64
tp3901
I0
s(g27
g3
tp3902
I0
s(g52
g2
tp3903
I0
s(g67
g60
tp3904
I0
s(g115
g44
tp3905
I0
s(g2
g124
tp3906
I0
s(g116
g15
tp3907
I0
s(g18
g11
tp3908
I0
s(g210
g47
tp3909
I0
s(g103
g9
tp3910
I0
s(g82
g202
tp3911
I0
s(g36
g34
tp3912
I0
s(g241
g90
tp3913
I0
s(g111
g76
tp3914
I0
s(g68
g126
tp3915
I0
s(g99
g27
tp3916
I0
s(g202
g34
tp3917
I0
s(g163
g31
tp3918
I0
s(g24
g26
tp3919
I0
s(g34
g12
tp3920
I0
s(g89
g29
tp3921
I0
s(g62
g26
tp3922
I0
s(g199
g173
tp3923
I0
s(g39
g42
tp3924
I0
s(g173
g67
tp3925
I0
s(g87
g70
tp3926
I0
s(g134
g116
tp3927
I0
s(g27
g60
tp3928
I0
s(g44
g111
tp3929
I0
s(g38
g12
tp3930
I0
s(g113
g113
tp3931
F0.66666666666666663
s(g96
g99
tp3932
I0
s(g163
g118
tp3933
I0
s(g50
g163
tp3934
I0
s(g52
g115
tp3935
I0
s(g8
g50
tp3936
I0
s(g39
g96
tp3937
I0
s(g58
g214
tp3938
I0
s(g80
g218
tp3939
I0
s(g38
g126
tp3940
I0
s(g41
g124
tp3941
I0
s(g60
g58
tp3942
I0
s(g113
g129
tp3943
I0
s(g9
g74
tp3944
I0
s(g65
g84
tp3945
I0
s(g31
g134
tp3946
I0
s(g41
g113
tp3947
I0
s(g94
g17
tp3948
I0
s(g49
g80
tp3949
I0
s(g9
g6
tp3950
I0
s(g105
g12
tp3951
I0
s(g67
g56
tp3952
I0
s(g173
g68
tp3953
I0
s(g47
g96
tp3954
I0
s(g9
g34
tp3955
I0
s(g34
g11
tp3956
I0
s(g214
g65
tp3957
I0
s(g6
g8
tp3958
I0
s(g202
g3
tp3959
I0
s(g67
g38
tp3960
I0
s(g6
g202
tp3961
I0
s(g52
g116
tp3962
I0
s(g78
g115
tp3963
I0
s(g45
g267
tp3964
I0
s(g113
g26
tp3965
I0
s(g58
g99
tp3966
I0
s(g84
g126
tp3967
I0
s(g24
g36
tp3968
I0
s(g34
g124
tp3969
I0
s(g34
g3
tp3970
I0
s(g18
g56
tp3971
I0
s(g45
g202
tp3972
I0
s(g113
g50
tp3973
I0
s(g80
g67
tp3974
F0.53846153846153844
s(g60
g172
tp3975
I0
s(g109
g58
tp3976
I0
s(g52
g20
tp3977
I0
s(g58
g105
tp3978
I0
s(g47
g126
tp3979
I0
s(g124
g18
tp3980
I0
s(g32
g15
tp3981
I0
s(g276
g105
tp3982
I0
s(g89
g163
tp3983
I0
s(g47
g103
tp3984
I0
s(g210
g29
tp3985
I0
s(g89
g115
tp3986
I0
s(g118
g39
tp3987
I0
s(g56
g34
tp3988
I0
s(g11
g103
tp3989
I0
s(g39
g49
tp3990
I0
s(g60
g111
tp3991
I0
s(g116
g39
tp3992
I0
s(g214
g82
tp3993
I0
s(g9
g70
tp3994
I0
s(g87
g44
tp3995
I0
s(g49
g8
tp3996
I0
s(g129
g218
tp3997
I0
s(g267
g82
tp3998
I0
s(g12
g276
tp3999
I0
s(g173
g27
tp4000
I0
s(g90
g116
tp4001
I0
s(g15
g3
tp4002
I0
s(g240
g21
tp4003
I0
s(g6
g39
tp4004
I0
s(g17
g115
tp4005
I0
s(g163
g96
tp4006
I0
s(g60
g276
tp4007
I0
s(g52
g124
tp4008
I0
s(g84
g41
tp4009
I0
s(g124
g50
tp4010
I0
s(g65
g11
tp4011
I0
s(g218
g11
tp4012
I0
s(g18
g129
tp4013
I0
s(g36
g241
tp4014
I0
s(g12
g27
tp4015
I0
s(g52
g54
tp4016
I0
s(g58
g82
tp4017
I0
s(g82
g84
tp4018
I0
s(g17
g62
tp4019
I0
s(g87
g6
tp4020
I0
s(g105
g44
tp4021
I0
s(g42
g218
tp4022
I0
s(g3
g276
tp4023
I0
s(g20
g11
tp4024
I0
s(g60
g27
tp4025
I0
s(g163
g58
tp4026
I0
s(g74
g118
tp4027
I0
s(g218
g64
tp4028
I0
s(g123
g23
tp4029
I0
s(g109
g90
tp4030
I0
s(g14
g129
tp4031
I0
s(g58
g210
tp4032
I0
s(g87
g96
tp4033
I0
s(g99
g42
tp4034
I0
s(g5
g96
tp4035
I0
s(g49
g124
tp4036
I0
s(g126
g172
tp4037
I0
s(g172
g31
tp4038
I0
s(g210
g267
tp4039
I0
s(g82
g12
tp4040
I0
s(g241
g41
tp4041
I0
s(g8
g113
tp4042
I0
s(g111
g70
tp4043
I0
s(g12
g39
tp4044
I0
s(g26
g99
tp4045
I0
s(g39
g90
tp4046
I0
s(g2
g6
tp4047
I0
s(g172
g5
tp4048
I0
s(g9
g8
tp4049
I0
s(g163
g32
tp4050
I0
s(g65
g202
tp4051
I0
s(g42
g126
tp4052
I0
s(g18
g23
tp4053
I0
s(g62
g41
tp4054
I0
s(g126
g70
tp4055
I0
s(g32
g99
tp4056
I0
s(g241
g17
tp4057
I0
s(g24
g2
tp4058
I0
s(g15
g52
tp4059
I0
s(g96
g64
tp4060
I0
s(g65
g45
tp4061
I0
s(g80
g27
tp4062
I0
s(g49
g78
tp4063
I0
s(g111
g126
tp4064
I0
s(g20
g32
tp4065
I0
s(g126
g64
tp4066
I0
s(g78
g6
tp4067
I0
s(g78
g163
tp4068
I0
s(g76
g129
tp4069
I0
s(g17
g134
tp4070
I0
s(g76
g108
tp4071
I0
s(g109
g56
tp4072
I0
s(g94
g123
tp4073
I0
s(g118
g218
tp4074
I0
s(g21
g124
tp4075
I0
s(g96
g87
tp4076
I0
s(g29
g47
tp4077
I0
s(g240
g12
tp4078
I0
s(g36
g26
tp4079
I0
s(g105
g42
tp4080
I0
s(g103
g103
tp4081
F0.51724137931034486
s(g17
g21
tp4082
I0
s(g172
g26
tp4083
I0
s(g78
g2
tp4084
I0
s(g34
g199
tp4085
I0
s(g54
g65
tp4086
I0
s(g8
g47
tp4087
I0
s(g113
g3
tp4088
I0
s(g172
g163
tp4089
I0
s(g29
g15
tp4090
I0
s(g126
g113
tp4091
I0
s(g20
g38
tp4092
I0
s(g94
g109
tp4093
I0
s(g109
g89
tp4094
I0
s(g115
g65
tp4095
I0
s(g96
g134
tp4096
I0
s(g47
g6
tp4097
I0
s(g84
g70
tp4098
I0
s(g60
g8
tp4099
I0
s(g82
g44
tp4100
I0
s(g12
g108
tp4101
I0
s(g240
g74
tp4102
I0
s(g62
g21
tp4103
I0
s(g58
g113
tp4104
I0
s(g12
g29
tp4105
I0
s(g218
g111
tp4106
I0
s(g116
g14
tp4107
I0
s(g76
g173
tp4108
I0
s(g47
g15
tp4109
I0
s(g15
g17
tp4110
I0
s(g68
g52
tp4111
I0
s(g173
g64
tp4112
I0
s(g115
g173
tp4113
I0
s(g50
g12
tp4114
I0
s(g129
g5
tp4115
I0
s(g214
g173
tp4116
I0
s(g36
g65
tp4117
I0
s(g173
g118
tp4118
I0
s(g109
g52
tp4119
I0
s(g3
g218
tp4120
I0
s(g2
g12
tp4121
I0
s(g64
g103
tp4122
I0
s(g134
g47
tp4123
I0
s(g36
g82
tp4124
I0
s(g68
g38
tp4125
I0
s(g202
g134
tp4126
I0
s(g105
g31
tp4127
I0
s(g64
g82
tp4128
I0
s(g6
g99
tp4129
I0
s(g21
g241
tp4130
I0
s(g21
g56
tp4131
I0
s(g124
g21
tp4132
I0
s(g90
g111
tp4133
I0
s(g267
g90
tp4134
I0
s(g111
g210
tp4135
I0
s(g47
g74
tp4136
I0
s(g34
g5
tp4137
I0
s(g65
g14
tp4138
I0
s(g115
g27
tp4139
I0
s(g111
g36
tp4140
I0
s(g50
g123
tp4141
I0
s(g210
g109
tp4142
I0
s(g80
g74
tp4143
I0
s(g29
g87
tp4144
I0
s(g41
g115
tp4145
I0
s(g124
g76
tp4146
I0
s(g29
g62
tp4147
I0
s(g99
g34
tp4148
I0
s(g74
g3
tp4149
F0.31674208144796379
s(g29
g172
tp4150
I0
s(g36
g99
tp4151
I0
s(g84
g60
tp4152
I0
s(g42
g58
tp4153
I0
s(g89
g118
tp4154
I0
s(g116
g42
tp4155
I0
s(g27
g241
tp4156
I0
s(g74
g124
tp4157
I0
s(g21
g96
tp4158
I0
s(g32
g54
tp4159
I0
s(g99
g240
tp4160
I0
s(g115
g87
tp4161
I0
s(g6
g41
tp4162
I0
s(g214
g8
tp4163
I0
s(g163
g108
tp4164
I0
s(g173
g15
tp4165
I0
s(g116
g84
tp4166
I0
s(g65
g74
tp4167
I0
s(g39
g15
tp4168
I0
s(g60
g105
tp4169
I0
s(g202
g2
tp4170
I0
s(g14
g218
tp4171
I0
s(g60
g70
tp4172
I0
s(g3
g34
tp4173
I0
s(g108
g64
tp4174
I0
s(g240
g58
tp4175
I0
s(g214
g76
tp4176
I0
s(g65
g34
tp4177
I0
s(g118
g5
tp4178
I0
s(g29
g39
tp4179
I0
s(g42
g87
tp4180
I0
s(g82
g173
tp4181
I0
s(g39
g173
tp4182
I0
s(g17
g34
tp4183
I0
s(g68
g21
tp4184
I0
s(g21
g68
tp4185
I0
s(g276
g199
tp4186
I0
s(g134
g67
tp4187
I0
s(g26
g23
tp4188
I0
s(g32
g129
tp4189
I0
s(g23
g15
tp4190
I0
s(g124
g126
tp4191
I0
s(g21
g240
tp4192
I0
s(g82
g70
tp4193
I0
s(g202
g6
tp4194
I0
s(g199
g115
tp4195
I0
s(g202
g124
tp4196
I0
s(g87
g17
tp4197
I0
s(g116
g32
tp4198
I0
s(g123
g67
tp4199
I0
s(g47
g89
tp4200
I0
s(g210
g129
tp4201
I0
s(g126
g60
tp4202
I0
s(g96
g60
tp4203
I0
s(g96
g34
tp4204
I0
s(g50
g21
tp4205
I0
s(g240
g2
tp4206
I0
s(g214
g103
tp4207
I0
s(g11
g49
tp4208
F0.3504273504273504
s(g276
g115
tp4209
I0
s(g41
g31
tp4210
I0
s(g36
g32
tp4211
I0
s(g26
g172
tp4212
I0
s(g276
g163
tp4213
I0
s(g108
g241
tp4214
I0
s(g74
g41
tp4215
F0.11764705882352941
s(g90
g90
tp4216
F0.60465116279069764
s(g126
g32
tp4217
I0
s(g21
g84
tp4218
I0
s(g172
g115
tp4219
I0
s(g113
g276
tp4220
I0
s(g172
g94
tp4221
I0
s(g47
g8
tp4222
I0
s(g129
g44
tp4223
I0
s(g58
g24
tp4224
I0
s(g89
g80
tp4225
I0
s(g80
g52
tp4226
I0
s(g80
g26
tp4227
I0
s(g15
g108
tp4228
I0
s(g14
g94
tp4229
I0
s(g172
g18
tp4230
I0
s(g218
g172
tp4231
I0
s(g44
g126
tp4232
I0
s(g267
g38
tp4233
I0
s(g129
g241
tp4234
I0
s(g26
g5
tp4235
I0
s(g54
g23
tp4236
I0
s(g241
g76
tp4237
I0
s(g214
g38
tp4238
I0
s(g65
g26
tp4239
I0
s(g18
g99
tp4240
I0
s(g29
g8
tp4241
I0
s(g89
g52
tp4242
I0
s(g21
g32
tp4243
I0
s(g54
g36
tp4244
I0
s(g42
g47
tp4245
I0
s(g123
g2
tp4246
I0
s(g103
g214
tp4247
I0
s(g54
g210
tp4248
I0
s(g96
g12
tp4249
I0
s(g267
g5
tp4250
I0
s(g87
g111
tp4251
I0
s(g26
g18
tp4252
I0
s(g11
g87
tp4253
I0
s(g218
g42
tp4254
I0
s(g84
g14
tp4255
I0
s(g267
g17
tp4256
F0.19305019305019305
s(g172
g68
tp4257
I0
s(g29
g84
tp4258
I0
s(g87
g241
tp4259
I0
s(g38
g267
tp4260
I0
s(g50
g76
tp4261
I0
s(g62
g49
tp4262
I0
s(g241
g108
tp4263
I0
s(g20
g68
tp4264
I0
s(g129
g113
tp4265
I0
s(g23
g89
tp4266
I0
s(g267
g103
tp4267
I0
s(g108
g68
tp4268
I0
s(g124
g78
tp4269
I0
s(g36
g123
tp4270
I0
s(g11
g134
tp4271
F0.05128205128205128
s(g20
g108
tp4272
I0
s(g50
g36
tp4273
I0
s(g76
g199
tp4274
I0
s(g65
g58
tp4275
I0
s(g99
g21
tp4276
I0
s(g20
g105
tp4277
I0
s(g52
g29
tp4278
I0
s(g111
g20
tp4279
I0
s(g24
g241
tp4280
I0
s(g2
g202
tp4281
I0
s(g111
g21
tp4282
I0
s(g2
g118
tp4283
I0
s(g109
g54
tp4284
I0
s(g23
g47
tp4285
I0
s(g49
g214
tp4286
I0
s(g41
g68
tp4287
I0
s(g129
g124
tp4288
I0
s(g29
g129
tp4289
I0
s(g62
g68
tp4290
I0
s(g20
g62
tp4291
I0
s(g68
g240
tp4292
I0
s(g15
g47
tp4293
I0
s(g74
g240
tp4294
I0
s(g202
g99
tp4295
I0
s(g60
g39
tp4296
I0
s(g116
g111
tp4297
I0
s(g218
g202
tp4298
I0
s(g6
g94
tp4299
I0
s(g26
g6
tp4300
I0
s(g199
g111
tp4301
I0
s(g5
g3
tp4302
I0
s(g199
g90
tp4303
I0
s(g26
g118
tp4304
I0
s(g47
g87
tp4305
I0
s(g5
g108
tp4306
I0
s(g68
g115
tp4307
I0
s(g65
g129
tp4308
I0
s(g82
g90
tp4309
I0
s(g5
g68
tp4310
I0
s(g9
g89
tp4311
I0
s(g50
g32
tp4312
I0
s(g113
g267
tp4313
I0
s(g64
g8
tp4314
I0
s(g31
g173
tp4315
I0
s(g18
g47
tp4316
I0
s(g2
g32
tp4317
I0
s(g11
g47
tp4318
I0
s(g276
g90
tp4319
I0
s(g80
g129
tp4320
I0
s(g29
g54
tp4321
I0
s(g129
g38
tp4322
I0
s(g9
g47
tp4323
I0
s(g3
g60
tp4324
I0
s(g96
g129
tp4325
I0
s(g24
g64
tp4326
I0
s(g87
g3
tp4327
I0
s(g78
g12
tp4328
I0
s(g267
g50
tp4329
I0
s(g3
g52
tp4330
I0
s(g29
g126
tp4331
I0
s(g26
g62
tp4332
I0
s(g87
g15
tp4333
I0
s(g31
g70
tp4334
I0
s(g111
g23
tp4335
I0
s(g105
g134
tp4336
I0
s(g49
g218
tp4337
I0
s(g62
g105
tp4338
I0
s(g67
g41
tp4339
I0
s(g99
g38
tp4340
I0
s(g90
g68
tp4341
I0
s(g27
g173
tp4342
I0
s(g82
g39
tp4343
I0
s(g118
g65
tp4344
I0
s(g41
g116
tp4345
I0
s(g129
g12
tp4346
I0
s(g23
g172
tp4347
I0
s(g76
g11
tp4348
I0
s(g78
g123
tp4349
I0
s(g29
g42
tp4350
I0
s(g62
g113
tp4351
I0
s(g111
g108
tp4352
I0
s(g23
g134
tp4353
I0
s(g116
g52
tp4354
I0
s(g103
g8
tp4355
I0
s(g31
g23
tp4356
I0
s(g276
g267
tp4357
I0
s(g118
g56
tp4358
I0
s(g52
g80
tp4359
I0
s(g74
g8
tp4360
I0
s(g47
g67
tp4361
I0
s(g134
g109
tp4362
I0
s(g65
g109
tp4363
I0
s(g78
g109
tp4364
I0
s(g17
g126
tp4365
I0
s(g14
g60
tp4366
I0
s(g52
g41
tp4367
I0
s(g74
g129
tp4368
I0
s(g65
g241
tp4369
I0
s(g38
g172
tp4370
I0
s(g14
g134
tp4371
I0
s(g80
g267
tp4372
I0
s(g14
g118
tp4373
I0
s(g5
g39
tp4374
I0
s(g12
g11
tp4375
I0
s(g26
g123
tp4376
I0
s(g18
g9
tp4377
I0
s(g202
g70
tp4378
I0
s(g60
g45
tp4379
I0
s(g52
g240
tp4380
I0
s(g42
g39
tp4381
I0
s(g47
g23
tp4382
I0
s(g118
g64
tp4383
I0
s(g115
g50
tp4384
I0
s(g276
g118
tp4385
I0
s(g111
g34
tp4386
I0
s(g123
g6
tp4387
I0
s(g24
g39
tp4388
I0
s(g64
g78
tp4389
I0
s(g64
g5
tp4390
I0
s(g67
g87
tp4391
I0
s(g34
g64
tp4392
I0
s(g118
g70
tp4393
I0
s(g76
g58
tp4394
I0
s(g11
g123
tp4395
I0
s(g210
g23
tp4396
I0
s(g115
g129
tp4397
I0
s(g64
g26
tp4398
I0
s(g31
g108
tp4399
I0
s(g163
g80
tp4400
I0
s(g241
g12
tp4401
I0
s(g210
g67
tp4402
I0
s(g11
g267
tp4403
I0
s(g87
g126
tp4404
I0
s(g41
g56
tp4405
I0
s(g214
g60
tp4406
I0
s(g126
g58
tp4407
I0
s(g67
g267
tp4408
I0
s(g9
g11
tp4409
I0
s(g39
g241
tp4410
I0
s(g96
g74
tp4411
I0
s(g49
g240
tp4412
I0
s(g26
g89
tp4413
I0
s(g267
g111
tp4414
I0
s(g214
g89
tp4415
I0
s(g39
g5
tp4416
I0
s(g80
g56
tp4417
I0
s(g123
g80
tp4418
I0
s(g218
g39
tp4419
I0
s(g70
g76
tp4420
I0
s(g8
g11
tp4421
I0
s(g68
g118
tp4422
I0
s(g113
g32
tp4423
I0
s(g113
g47
tp4424
I0
s(g47
g47
tp4425
F0.49068322981366458
s(g241
g38
tp4426
I0
s(g129
g34
tp4427
I0
s(g26
g94
tp4428
I0
s(g9
g52
tp4429
I0
s(g26
g64
tp4430
I0
s(g214
g47
tp4431
I0
s(g38
g14
tp4432
I0
s(g58
g124
tp4433
I0
s(g80
g20
tp4434
I0
s(g54
g54
tp4435
I0
s(g84
g267
tp4436
I0
s(g105
g21
tp4437
I0
s(g89
g99
tp4438
I0
s(g18
g52
tp4439
I0
s(g8
g64
tp4440
F0.13761467889908258
s(g99
g41
tp4441
I0
s(g15
g8
tp4442
I0
s(g74
g113
tp4443
I0
s(g52
g105
tp4444
I0
s(g31
g26
tp4445
I0
s(g56
g70
tp4446
I0
s(g82
g17
tp4447
I0
s(g32
g109
tp4448
I0
s(g49
g24
tp4449
I0
s(g62
g60
tp4450
I0
s(g45
g241
tp4451
I0
s(g14
g199
tp4452
I0
s(g218
g3
tp4453
I0
s(g23
g14
tp4454
I0
s(g173
g123
tp4455
I0
s(g267
g65
tp4456
I0
s(g62
g32
tp4457
I0
s(g68
g90
tp4458
F0.5357142857142857
s(g82
g210
tp4459
I0
s(g109
g70
tp4460
I0
s(g3
g9
tp4461
I0
s(g74
g11
tp4462
I0
s(g20
g199
tp4463
I0
s(g65
g9
tp4464
I0
s(g96
g89
tp4465
I0
s(g50
g118
tp4466
I0
s(g47
g218
tp4467
I0
s(g52
g32
tp4468
I0
s(g129
g20
tp4469
I0
s(g87
g115
tp4470
I0
s(g90
g29
tp4471
I0
s(g115
g78
tp4472
I0
s(g105
g9
tp4473
I0
s(g105
g54
tp4474
I0
s(g39
g172
tp4475
I0
s(g267
g47
tp4476
I0
s(g49
g12
tp4477
I0
s(g99
g276
tp4478
I0
s(g31
g241
tp4479
I0
s(g29
g44
tp4480
I0
s(g94
g118
tp4481
I0
s(g52
g60
tp4482
I0
s(g54
g52
tp4483
I0
s(g126
g90
tp4484
I0
s(g210
g84
tp4485
I0
s(g18
g96
tp4486
I0
s(g241
g65
tp4487
I0
s(g163
g89
tp4488
F0.58778625954198471
s(g96
g45
tp4489
I0
s(g105
g60
tp4490
I0
s(g70
g80
tp4491
I0
s(g20
g163
tp4492
I0
s(g241
g2
tp4493
I0
s(g14
g26
tp4494
I0
s(g111
g87
tp4495
I0
s(g17
g240
tp4496
I0
s(g94
g50
tp4497
I0
s(g78
g32
tp4498
I0
s(g12
g124
tp4499
I0
s(g123
g134
tp4500
I0
s(g116
g6
tp4501
I0
s(g5
g5
tp4502
F0.4975609756097561
s(g163
g214
tp4503
I0
s(g6
g214
tp4504
F0.35217391304347828
s(g134
g62
tp4505
I0
s(g3
g62
tp4506
I0
s(g24
g105
tp4507
I0
s(g32
g36
tp4508
I0
s(g109
g111
tp4509
I0
s(g24
g21
tp4510
I0
s(g58
g80
tp4511
I0
s(g9
g108
tp4512
I0
s(g49
g60
tp4513
I0
s(g126
g34
tp4514
I0
s(g173
g94
tp4515
I0
s(g99
g5
tp4516
I0
s(g70
g50
tp4517
I0
s(g163
g109
tp4518
I0
s(g78
g99
tp4519
I0
s(g52
g163
tp4520
I0
s(g36
g96
tp4521
I0
s(g3
g80
tp4522
I0
s(g105
g218
tp4523
I0
s(g214
g105
tp4524
I0
s(g65
g29
tp4525
I0
s(g74
g39
tp4526
I0
s(g45
g56
tp4527
I0
s(g3
g172
tp4528
I0
s(g32
g67
tp4529
I0
s(g41
g44
tp4530
I0
s(g47
g173
tp4531
I0
s(g172
g42
tp4532
I0
s(g124
g39
tp4533
I0
s(g94
g38
tp4534
I0
s(g15
g64
tp4535
I0
s(g82
g20
tp4536
I0
s(g96
g94
tp4537
I0
s(g24
g68
tp4538
I0
s(g105
g108
tp4539
I0
s(g109
g24
tp4540
I0
s(g29
g65
tp4541
I0
s(g199
g2
tp4542
I0
s(g134
g96
tp4543
I0
s(g129
g87
tp4544
I0
s(g52
g52
tp4545
F0.7263843648208469
s(g82
g54
tp4546
I0
s(g38
g115
tp4547
I0
s(g18
g12
tp4548
I0
s(g87
g39
tp4549
I0
s(g23
g36
tp4550
I0
s(g31
g129
tp4551
I0
s(g12
g116
tp4552
I0
s(g50
g49
tp4553
I0
s(g76
g118
tp4554
I0
s(g41
g202
tp4555
I0
s(g23
g60
tp4556
I0
s(g24
g23
tp4557
I0
s(g2
g68
tp4558
I0
s(g163
g11
tp4559
I0
s(g49
g113
tp4560
I0
s(g78
g80
tp4561
I0
s(g67
g163
tp4562
I0
s(g123
g78
tp4563
I0
s(g84
g68
tp4564
I0
s(g111
g38
tp4565
I0
s(g74
g82
tp4566
I0
s(g276
g42
tp4567
I0
s(g202
g76
tp4568
I0
s(g210
g199
tp4569
I0
s(g123
g115
tp4570
I0
s(g45
g45
tp4571
F0.55555555555555558
s(g41
g105
tp4572
I0
s(g5
g76
tp4573
I0
s(g129
g105
tp4574
I0
s(g12
g202
tp4575
I0
s(g11
g67
tp4576
I0
s(g2
g50
tp4577
I0
s(g11
g126
tp4578
I0
s(g240
g24
tp4579
I0
s(g115
g113
tp4580
I0
s(g96
g109
tp4581
I0
s(g65
g39
tp4582
I0
s(g15
g111
tp4583
I0
s(g76
g68
tp4584
I0
s(g34
g202
tp4585
I0
s(g41
g70
tp4586
I0
s(g103
g31
tp4587
I0
s(g5
g32
tp4588
I0
s(g202
g123
tp4589
I0
s(g99
g218
tp4590
I0
s(g210
g172
tp4591
I0
s(g60
g163
tp4592
I0
s(g15
g21
tp4593
I0
s(g172
g67
tp4594
I0
s(g67
g17
tp4595
I0
s(g67
g45
tp4596
I0
s(g9
g109
tp4597
I0
s(g87
g14
tp4598
I0
s(g276
g62
tp4599
I0
s(g67
g124
tp4600
I0
s(g6
g126
tp4601
I0
s(g276
g39
tp4602
I0
s(g84
g54
tp4603
I0
s(g134
g15
tp4604
I0
s(g50
g45
tp4605
I0
s(g39
g52
tp4606
I0
s(g67
g199
tp4607
I0
s(g45
g172
tp4608
I0
s(g108
g70
tp4609
I0
s(g39
g267
tp4610
I0
s(g123
g74
tp4611
F0.27853881278538811
s(g172
g109
tp4612
I0
s(g199
g39
tp4613
I0
s(g68
g15
tp4614
I0
s(g134
g23
tp4615
I0
s(g39
g2
tp4616
I0
s(g32
g210
tp4617
I0
s(g84
g173
tp4618
I0
s(g6
g42
tp4619
I0
s(g42
g24
tp4620
I0
s(g52
g6
tp4621
I0
s(g47
g38
tp4622
I0
s(g202
g50
tp4623
I0
s(g45
g94
tp4624
I0
s(g109
g115
tp4625
I0
s(g45
g126
tp4626
I0
s(g103
g47
tp4627
I0
s(g115
g94
tp4628
I0
s(g3
g240
tp4629
I0
s(g108
g210
tp4630
I0
s(g29
g45
tp4631
I0
s(g124
g99
tp4632
I0
s(g115
g70
tp4633
I0
s(g21
g5
tp4634
I0
s(g58
g32
tp4635
I0
s(g116
g47
tp4636
I0
s(g118
g21
tp4637
I0
s(g105
g105
tp4638
F0.61538461538461542
s(g68
g74
tp4639
I0
s(g12
g5
tp4640
I0
s(g124
g49
tp4641
I0
s(g172
g84
tp4642
I0
s(g116
g163
tp4643
I0
s(g15
g126
tp4644
I0
s(g9
g90
tp4645
I0
s(g241
g111
tp4646
I0
s(g45
g42
tp4647
I0
s(g87
g214
tp4648
I0
s(g123
g15
tp4649
I0
s(g38
g9
tp4650
I0
s(g39
g45
tp4651
I0
s(g276
g202
tp4652
I0
s(g74
g60
tp4653
I0
s(g36
g47
tp4654
I0
s(g70
g32
tp4655
I0
s(g34
g172
tp4656
I0
s(g17
g23
tp4657
I0
s(g113
g84
tp4658
I0
s(g64
g94
tp4659
I0
s(g78
g76
tp4660
I0
s(g23
g80
tp4661
I0
s(g39
g54
tp4662
I0
s(g173
g45
tp4663
I0
s(g80
g113
tp4664
I0
s(g27
g5
tp4665
I0
s(g12
g32
tp4666
I0
s(g14
g126
tp4667
I0
s(g12
g241
tp4668
I0
s(g34
g108
tp4669
I0
s(g24
g54
tp4670
I0
s(g172
g27
tp4671
I0
s(g65
g113
tp4672
I0
s(g78
g36
tp4673
I0
s(g24
g8
tp4674
I0
s(g267
g12
tp4675
I0
s(g27
g31
tp4676
I0
s(g34
g58
tp4677
I0
s(g67
g84
tp4678
I0
s(g47
g21
tp4679
I0
s(g58
g129
tp4680
I0
s(g134
g202
tp4681
I0
s(g20
g20
tp4682
I0
s(g118
g54
tp4683
I0
s(g36
g90
tp4684
I0
s(g12
g134
tp4685
I0
s(g87
g87
tp4686
F0.49509803921568629
s(g54
g241
tp4687
I0
s(g103
g87
tp4688
I0
s(g11
g58
tp4689
I0
s(g5
g111
tp4690
I0
s(g129
g276
tp4691
I0
s(g54
g90
tp4692
I0
s(g36
g267
tp4693
I0
s(g38
g62
tp4694
I0
s(g199
g74
tp4695
I0
s(g20
g26
tp4696
I0
s(g21
g60
tp4697
I0
s(g74
g123
tp4698
I0
s(g23
g99
tp4699
I0
s(g129
g26
tp4700
I0
s(g58
g8
tp4701
I0
s(g9
g23
tp4702
I0
s(g60
g38
tp4703
I0
s(g134
g80
tp4704
I0
s(g113
g103
tp4705
I0
s(g21
g99
tp4706
I0
s(g111
g90
tp4707
I0
s(g172
g21
tp4708
I0
s(g118
g108
tp4709
I0
s(g5
g105
tp4710
I0
s(g6
g105
tp4711
I0
s(g105
g49
tp4712
I0
s(g68
g20
tp4713
I0
s(g9
g87
tp4714
I0
s(g240
g94
tp4715
I0
s(g74
g173
tp4716
I0
s(g12
g113
tp4717
I0
s(g49
g5
tp4718
I0
s(g9
g36
tp4719
I0
s(g163
g29
tp4720
I0
s(g32
g23
tp4721
I0
s(g18
g124
tp4722
I0
s(g76
g12
tp4723
I0
s(g14
g20
tp4724
I0
s(g18
g68
tp4725
I0
s(g67
g103
tp4726
I0
s(g23
g45
tp4727
I0
s(g3
g202
tp4728
I0
s(g241
g21
tp4729
I0
s(g109
g60
tp4730
I0
s(g54
g64
tp4731
I0
s(g2
g62
tp4732
I0
s(g123
g29
tp4733
I0
s(g14
g116
tp4734
I0
s(g116
g74
tp4735
I0
s(g111
g276
tp4736
I0
s(g70
g113
tp4737
I0
s(g54
g118
tp4738
I0
s(g173
g113
tp4739
I0
s(g58
g56
tp4740
I0
s(g210
g62
tp4741
I0
s(g5
g65
tp4742
I0
s(g50
g99
tp4743
I0
s(g56
g124
tp4744
F0.29032258064516131
s(g105
g90
tp4745
I0
s(g45
g116
tp4746
I0
s(g111
g18
tp4747
I0
s(g218
g108
tp4748
I0
s(g23
g50
tp4749
I0
s(g6
g123
tp4750
I0
s(g11
g113
tp4751
I0
s(g27
g68
tp4752
I0
s(g202
g31
tp4753
I0
s(g84
g113
tp4754
I0
s(g15
g5
tp4755
I0
s(g8
g45
tp4756
I0
s(g199
g32
tp4757
I0
s(g52
g103
tp4758
I0
s(g240
g49
tp4759
I0
s(g124
g45
tp4760
I0
s(g267
g21
tp4761
I0
s(g78
g111
tp4762
I0
s(g23
g49
tp4763
I0
s(g50
g109
tp4764
I0
s(g76
g31
tp4765
I0
s(g23
g96
tp4766
I0
s(g111
g214
tp4767
I0
s(g218
g49
tp4768
I0
s(g240
g82
tp4769
I0
s(g116
g241
tp4770
I0
s(g2
g9
tp4771
I0
s(g90
g267
tp4772
I0
s(g116
g17
tp4773
I0
s(g6
g6
tp4774
F0.59130434782608698
s(g14
g21
tp4775
I0
s(g18
g18
tp4776
F0.49246231155778897
s(g134
g123
tp4777
I0
s(g103
g218
tp4778
I0
s(g41
g49
tp4779
I0
s(g202
g44
tp4780
I0
s(g15
g199
tp4781
I0
s(g118
g17
tp4782
I0
s(g32
g113
tp4783
I0
s(g80
g36
tp4784
I0
s(g39
g89
tp4785
I0
s(g113
g44
tp4786
I0
s(g11
g20
tp4787
I0
s(g109
g267
tp4788
I0
s(g56
g96
tp4789
I0
s(g99
g52
tp4790
I0
s(g26
g96
tp4791
I0
s(g3
g96
tp4792
I0
s(g8
g67
tp4793
I0
s(g94
g14
tp4794
I0
s(g96
g32
tp4795
I0
s(g113
g27
tp4796
I0
s(g89
g58
tp4797
I0
s(g42
g118
tp4798
I0
s(g94
g99
tp4799
I0
s(g118
g41
tp4800
I0
s(g42
g134
tp4801
I0
s(g67
g2
tp4802
I0
s(g109
g172
tp4803
I0
s(g78
g45
tp4804
I0
s(g202
g11
tp4805
I0
s(g50
g31
tp4806
I0
s(g124
g70
tp4807
I0
s(g42
g38
tp4808
I0
s(g15
g210
tp4809
I0
s(g64
g12
tp4810
I0
s(g108
g172
tp4811
I0
s(g99
g74
tp4812
I0
s(g27
g34
tp4813
I0
s(g68
g214
tp4814
I0
s(g70
g29
tp4815
I0
s(g44
g94
tp4816
I0
s(g36
g276
tp4817
I0
s(g54
g39
tp4818
I0
s(g60
g126
tp4819
I0
s(g8
g42
tp4820
I0
s(g115
g21
tp4821
I0
s(g96
g15
tp4822
I0
s(g202
g60
tp4823
I0
s(g54
g113
tp4824
I0
s(g74
g24
tp4825
I0
s(g87
g24
tp4826
I0
s(g202
g240
tp4827
I0
s(g115
g111
tp4828
I0
s(g126
g99
tp4829
I0
s(g11
g210
tp4830
I0
s(g90
g82
tp4831
I0
s(g276
g21
tp4832
I0
s(g9
g42
tp4833
I0
s(g89
g24
tp4834
I0
s(g18
g31
tp4835
I0
s(g58
g29
tp4836
I0
s(g58
g276
tp4837
I0
s(g108
g12
tp4838
I0
s(g123
g202
tp4839
I0
s(g23
g118
tp4840
I0
s(g118
g52
tp4841
I0
s(g47
g82
tp4842
I0
s(g126
g38
tp4843
I0
s(g3
g29
tp4844
I0
s(g210
g99
tp4845
I0
s(g65
g80
tp4846
I0
s(g241
g49
tp4847
I0
s(g111
g82
tp4848
I0
s(g134
g42
tp4849
I0
s(g58
g111
tp4850
I0
s(g76
g67
tp4851
I0
s(g36
g109
tp4852
I0
s(g14
g123
tp4853
I0
s(g172
g241
tp4854
I0
s(g126
g56
tp4855
I0
s(g163
g202
tp4856
I0
s(g36
g172
tp4857
I0
s(g36
g116
tp4858
I0
s(g116
g12
tp4859
I0
s(g124
g111
tp4860
I0
s(g199
g58
tp4861
I0
s(g276
g123
tp4862
I0
s(g108
g199
tp4863
I0
s(g267
g32
tp4864
I0
s(g5
g82
tp4865
I0
s(g24
g3
tp4866
I0
s(g17
g218
tp4867
I0
s(g42
g20
tp4868
I0
s(g67
g70
tp4869
I0
s(g8
g89
tp4870
I0
s(g214
g32
tp4871
I0
s(g6
g76
tp4872
I0
s(g84
g214
tp4873
I0
s(g52
g87
tp4874
I0
s(g116
g109
tp4875
I0
s(g5
g90
tp4876
I0
s(g11
g118
tp4877
I0
s(g210
g82
tp4878
I0
s(g2
g20
tp4879
I0
s(g14
g34
tp4880
I0
s(g82
g105
tp4881
I0
s(g29
g202
tp4882
I0
s(g78
g134
tp4883
I0
s(g27
g199
tp4884
I0
s(g12
g67
tp4885
I0
s(g3
g12
tp4886
I0
s(g58
g103
tp4887
I0
s(g115
g20
tp4888
I0
s(g99
g26
tp4889
I0
s(g12
g15
tp4890
I0
s(g27
g12
tp4891
I0
s(g199
g78
tp4892
I0
s(g42
g115
tp4893
I0
s(g82
g2
tp4894
I0
s(g6
g3
tp4895
I0
s(g172
g267
tp4896
I0
s(g267
g15
tp4897
I0
s(g12
g76
tp4898
I0
s(g103
g52
tp4899
I0
s(g84
g218
tp4900
I0
s(g54
g20
tp4901
I0
s(g96
g2
tp4902
I0
s(g210
g36
tp4903
I0
s(g47
g27
tp4904
I0
s(g64
g113
tp4905
I0
s(g74
g52
tp4906
I0
s(g2
g36
tp4907
I0
s(g12
g123
tp4908
I0
s(g96
g111
tp4909
I0
s(g172
g134
tp4910
I0
s(g42
g45
tp4911
I0
s(g24
g111
tp4912
I0
s(g267
g96
tp4913
I0
s(g118
g3
tp4914
I0
s(g64
g21
tp4915
I0
s(g172
g202
tp4916
I0
s(g202
g129
tp4917
I0
s(g11
g50
tp4918
I0
s(g44
g26
tp4919
I0
s(g64
g29
tp4920
I0
s(g26
g124
tp4921
I0
s(g21
g67
tp4922
I0
s(g126
g8
tp4923
I0
s(g134
g44
tp4924
I0
s(g62
g65
tp4925
I0
s(g24
g126
tp4926
I0
s(g2
g58
tp4927
I0
s(g38
g67
tp4928
I0
s(g276
g29
tp4929
I0
s(g41
g24
tp4930
I0
s(g99
g58
tp4931
I0
s(g103
g129
tp4932
I0
s(g34
g39
tp4933
I0
s(g126
g116
tp4934
I0
s(g34
g62
tp4935
I0
s(g15
g240
tp4936
I0
s(g67
g11
tp4937
I0
s(g9
g62
tp4938
I0
s(g18
g49
tp4939
I0
s(g58
g15
tp4940
I0
s(g202
g39
tp4941
I0
s(g163
g134
tp4942
I0
s(g172
g14
tp4943
I0
s(g84
g65
tp4944
I0
s(g11
g62
tp4945
I0
s(g36
g39
tp4946
I0
s(g18
g62
tp4947
I0
s(g94
g36
tp4948
I0
s(g2
g60
tp4949
I0
s(g6
g70
tp4950
I0
s(g89
g42
tp4951
I0
s(g65
g31
tp4952
I0
s(g41
g52
tp4953
I0
s(g45
g67
tp4954
I0
s(g52
g8
tp4955
I0
s(g199
g118
tp4956
I0
s(g45
g44
tp4957
I0
s(g126
g5
tp4958
I0
s(g113
g11
tp4959
I0
s(g218
g62
tp4960
I0
s(g134
g173
tp4961
I0
s(g29
g6
tp4962
I0
s(g15
g62
tp4963
I0
s(g11
g115
tp4964
I0
s(g15
g84
tp4965
F0.52972972972972976
s(g96
g20
tp4966
I0
s(g113
g65
tp4967
I0
s(g39
g82
tp4968
I0
s(g44
g134
tp4969
I0
s(g44
g78
tp4970
I0
s(g49
g3
tp4971
I0
s(g26
g116
tp4972
I0
s(g240
g113
tp4973
I0
s(g89
g94
tp4974
I0
s(g90
g172
tp4975
I0
s(g116
g103
tp4976
I0
s(g78
g60
tp4977
I0
s(g5
g38
tp4978
F0.5024390243902439
s(g172
g11
tp4979
I0
s(g29
g241
tp4980
I0
s(g84
g8
tp4981
I0
s(g11
g45
tp4982
I0
s(g105
g214
tp4983
I0
s(g123
g108
tp4984
I0
s(g5
g70
tp4985
I0
s(g15
g12
tp4986
I0
s(g74
g115
tp4987
I0
s(g6
g163
tp4988
I0
s(g60
g2
tp4989
I0
s(g50
g34
tp4990
I0
s(g105
g74
tp4991
I0
s(g2
g276
tp4992
I0
s(g214
g113
tp4993
I0
s(g65
g214
tp4994
I0
s(g99
g103
tp4995
I0
s(g89
g18
tp4996
I0
s(g90
g76
tp4997
I0
s(g111
g173
tp4998
I0
s(g56
g129
tp4999
I0
s(g62
g50
tp5000
I0
s(g29
g105
tp5001
I0
s(g202
g116
tp5002
F0.071698113207547168
s(g27
g218
tp5003
I0
s(g80
g109
tp5004
I0
s(g29
g89
tp5005
I0
s(g31
g99
tp5006
I0
s(g214
g118
tp5007
I0
s(g50
g241
tp5008
I0
s(g108
g20
tp5009
I0
s(g5
g173
tp5010
I0
s(g14
g87
tp5011
I0
s(g18
g267
tp5012
I0
s(g267
g34
tp5013
I0
s(g218
g123
tp5014
I0
s(g5
g103
tp5015
I0
s(g41
g54
tp5016
I0
s(g82
g60
tp5017
I0
s(g2
g27
tp5018
I0
s(g21
g17
tp5019
I0
s(g26
g80
tp5020
I0
s(g94
g89
tp5021
I0
s(g90
g134
tp5022
I0
s(g109
g214
tp5023
I0
s(g17
g20
tp5024
I0
s(g123
g34
tp5025
I0
s(g8
g240
tp5026
I0
s(g31
g58
tp5027
I0
s(g23
g32
tp5028
I0
s(g90
g24
tp5029
I0
s(g276
g99
tp5030
I0
s(g276
g94
tp5031
I0
s(g47
g42
tp5032
I0
s(g56
g67
tp5033
I0
s(g27
g240
tp5034
I0
s(g52
g65
tp5035
I0
s(g9
g3
tp5036
I0
s(g31
g218
tp5037
I0
s(g202
g113
tp5038
I0
s(g90
g18
tp5039
I0
s(g58
g118
tp5040
I0
s(g210
g210
tp5041
F0.495
s(g60
g76
tp5042
I0
s(g241
g67
tp5043
I0
s(g32
g111
tp5044
I0
s(g64
g172
tp5045
I0
s(g39
g41
tp5046
I0
s(g5
g20
tp5047
I0
s(g70
g67
tp5048
I0
s(g80
g78
tp5049
I0
s(g5
g8
tp5050
I0
s(g70
g240
tp5051
I0
s(g50
g47
tp5052
I0
s(g29
g115
tp5053
I0
s(g214
g241
tp5054
I0
s(g5
g116
tp5055
I0
s(g126
g123
tp5056
I0
s(g74
g31
tp5057
I0
s(g113
g89
tp5058
I0
s(g14
g65
tp5059
I0
s(g49
g65
tp5060
I0
s(g105
g82
tp5061
I0
s(g240
g8
tp5062
I0
s(g84
g44
tp5063
I0
s(g54
g267
tp5064
I0
s(g134
g65
tp5065
I0
s(g17
g113
tp5066
I0
s(g42
g31
tp5067
I0
s(g241
g32
tp5068
I0
s(g103
g74
tp5069
I0
s(g31
g21
tp5070
I0
s(g64
g76
tp5071
I0
s(g56
g31
tp5072
I0
s(g2
g109
tp5073
I0
s(g108
g38
tp5074
I0
s(g47
g276
tp5075
I0
s(g3
g82
tp5076
I0
s(g78
g14
tp5077
I0
s(g90
g42
tp5078
I0
s(g214
g276
tp5079
I0
s(g96
g5
tp5080
I0
s(g8
g15
tp5081
I0
s(g123
g94
tp5082
I0
s(g173
g44
tp5083
I0
s(g65
g18
tp5084
I0
s(g124
g23
tp5085
F0.33333333333333331
s(g82
g38
tp5086
I0
s(g2
g267
tp5087
I0
s(g36
g115
tp5088
I0
s(g26
g126
tp5089
I0
s(g56
g65
tp5090
I0
s(g36
g163
tp5091
I0
s(g50
g134
tp5092
I0
s(g90
g202
tp5093
I0
s(g9
g15
tp5094
I0
s(g89
g70
tp5095
I0
s(g129
g14
tp5096
F0.55483870967741933
s(g163
g74
tp5097
I0
s(g163
g2
tp5098
I0
s(g49
g56
tp5099
I0
s(g134
g82
tp5100
I0
s(g134
g31
tp5101
I0
s(g78
g105
tp5102
I0
s(g14
g31
tp5103
I0
s(g80
g23
tp5104
I0
s(g103
g126
tp5105
I0
s(g214
g68
tp5106
I0
s(g202
g80
tp5107
I0
s(g163
g24
tp5108
I0
s(g240
g173
tp5109
I0
s(g26
g267
tp5110
I0
s(g58
g96
tp5111
I0
s(g103
g21
tp5112
I0
s(g116
g29
tp5113
I0
s(g58
g54
tp5114
I0
s(g8
g123
tp5115
I0
s(g52
g27
tp5116
I0
s(g50
g87
tp5117
I0
s(g62
g56
tp5118
I0
s(g163
g18
tp5119
I0
s(g89
g44
tp5120
F0.50993377483443714
s(g173
g78
tp5121
I0
s(g276
g70
tp5122
I0
s(g2
g163
tp5123
I0
s(g31
g42
tp5124
I0
s(g14
g52
tp5125
I0
s(g41
g21
tp5126
I0
s(g42
g67
tp5127
I0
s(g126
g54
tp5128
I0
s(g60
g80
tp5129
I0
s(g49
g6
tp5130
I0
s(g210
g163
tp5131
I0
s(g54
g49
tp5132
I0
s(g124
g199
tp5133
I0
s(g62
g103
tp5134
I0
s(g218
g116
tp5135
I0
s(g87
g163
tp5136
I0
s(g38
g129
tp5137
I0
s(g60
g199
tp5138
I0
s(g115
g49
tp5139
I0
s(g5
g17
tp5140
I0
s(g65
g163
tp5141
I0
s(g41
g6
tp5142
I0
s(g90
g49
tp5143
I0
s(g17
g74
tp5144
I0
s(g2
g56
tp5145
I0
s(g31
g126
tp5146
F0.5
s(g31
g199
tp5147
I0
s(g12
g42
tp5148
I0
s(g41
g99
tp5149
I0
s(g80
g105
tp5150
I0
s(g123
g87
tp5151
I0
s(g39
g8
tp5152
I0
s(g6
g23
tp5153
I0
s(g65
g276
tp5154
I0
s(g44
g214
tp5155
I0
s(g2
g129
tp5156
I0
s(g34
g34
tp5157
F0.45454545454545453
s(g11
g36
tp5158
I0
s(g21
g113
tp5159
I0
s(g39
g116
tp5160
I0
s(g44
g6
tp5161
I0
s(g126
g118
tp5162
I0
s(g94
g134
tp5163
I0
s(g42
g129
tp5164
I0
s(g29
g173
tp5165
I0
s(g94
g172
tp5166
I0
s(g17
g199
tp5167
I0
s(g62
g218
tp5168
I0
s(g23
g6
tp5169
I0
s(g8
g62
tp5170
I0
s(g267
g45
tp5171
I0
s(g96
g9
tp5172
I0
s(g29
g58
tp5173
I0
s(g14
g115
tp5174
I0
s(g64
g276
tp5175
I0
s(g26
g129
tp5176
I0
s(g23
g109
tp5177
I0
s(g12
g240
tp5178
I0
s(g58
g39
tp5179
I0
s(g99
g32
tp5180
I0
s(g42
g2
tp5181
I0
s(g70
g42
tp5182
I0
s(g54
g96
tp5183
I0
s(g96
g78
tp5184
I0
s(g118
g60
tp5185
I0
s(g118
g76
tp5186
I0
s(g8
g29
tp5187
I0
s(g172
g124
tp5188
I0
s(g49
g31
tp5189
I0
s(g90
g2
tp5190
I0
s(g118
g68
tp5191
I0
s(g94
g202
tp5192
I0
s(g172
g199
tp5193
I0
s(g8
g115
tp5194
I0
s(g74
g58
tp5195
I0
s(g80
g76
tp5196
I0
s(g41
g26
tp5197
I0
s(g129
g118
tp5198
I0
s(g9
g29
tp5199
I0
s(g3
g116
tp5200
I0
s(g109
g32
tp5201
F0.22895622895622897
s(g27
g80
tp5202
I0
s(g23
g123
tp5203
I0
s(g173
g105
tp5204
I0
s(g36
g134
tp5205
I0
s(g74
g99
tp5206
I0
s(g76
g87
tp5207
I0
s(g62
g39
tp5208
I0
s(g58
g12
tp5209
I0
s(g84
g26
tp5210
I0
s(g49
g96
tp5211
I0
s(g105
g99
tp5212
I0
s(g105
g173
tp5213
I0
s(g240
g124
tp5214
I0
s(g17
g173
tp5215
I0
s(g123
g5
tp5216
I0
s(g17
g129
tp5217
I0
s(g15
g163
tp5218
I0
s(g172
g103
tp5219
I0
s(g18
g41
tp5220
I0
s(g214
g3
tp5221
I0
s(g173
g267
tp5222
I0
s(g29
g27
tp5223
I0
s(g123
g24
tp5224
I0
s(g84
g118
tp5225
I0
s(g52
g31
tp5226
I0
s(g129
g126
tp5227
I0
s(g32
g5
tp5228
I0
s(g41
g123
tp5229
I0
s(g39
g39
tp5230
F0.45454545454545453
s(g29
g41
tp5231
I0
s(g108
g240
tp5232
I0
s(g23
g12
tp5233
I0
s(g6
g45
tp5234
I0
s(g24
g52
tp5235
I0
s(g199
g60
tp5236
I0
s(g111
g50
tp5237
I0
s(g99
g108
tp5238
I0
s(g3
g67
tp5239
I0
s(g123
g163
tp5240
I0
s(g76
g21
tp5241
I0
s(g15
g105
tp5242
I0
s(g11
g129
tp5243
I0
s(g173
g6
tp5244
I0
s(g218
g82
tp5245
I0
s(g70
g56
tp5246
I0
s(g45
g74
tp5247
I0
s(g64
g58
tp5248
I0
s(g214
g21
tp5249
I0
s(g163
g94
tp5250
I0
s(g52
g96
tp5251
F0.035830618892508145
s(g21
g210
tp5252
I0
s(g2
g52
tp5253
I0
s(g20
g47
tp5254
I0
s(g87
g99
tp5255
I0
s(g68
g24
tp5256
I0
s(g3
g54
tp5257
I0
s(g70
g38
tp5258
I0
s(g60
g115
tp5259
I0
s(g129
g21
tp5260
I0
s(g23
g62
tp5261
I0
s(g27
g276
tp5262
I0
s(g214
g52
tp5263
I0
s(g38
g134
tp5264
I0
s(g44
g2
tp5265
I0
s(g241
g118
tp5266
I0
s(g34
g111
tp5267
I0
s(g84
g78
tp5268
I0
s(g8
g99
tp5269
I0
s(g49
g29
tp5270
I0
s(g26
g113
tp5271
I0
s(g115
g31
tp5272
I0
s(g108
g65
tp5273
I0
s(g115
g126
tp5274
I0
s(g70
g34
tp5275
I0
s(g123
g126
tp5276
I0
s(g45
g12
tp5277
I0
s(g54
g14
tp5278
I0
s(g42
g76
tp5279
I0
s(g2
g11
tp5280
I0
s(g52
g241
tp5281
I0
s(g62
g240
tp5282
I0
s(g56
g115
tp5283
I0
s(g126
g17
tp5284
I0
s(g54
g126
tp5285
I0
s(g129
g96
tp5286
I0
s(g5
g44
tp5287
I0
s(g163
g90
tp5288
I0
s(g2
g42
tp5289
I0
s(g62
g76
tp5290
I0
s(g12
g60
tp5291
I0
s(g64
g89
tp5292
I0
s(g103
g58
tp5293
I0
s(g199
g113
tp5294
I0
s(g113
g9
tp5295
I0
s(g126
g89
tp5296
I0
s(g21
g172
tp5297
I0
s(g60
g118
tp5298
I0
s(g210
g214
tp5299
I0
s(g78
g124
tp5300
I0
s(g241
g276
tp5301
I0
s(g64
g39
tp5302
I0
s(g99
g56
tp5303
I0
s(g108
g99
tp5304
I0
s(g118
g111
tp5305
I0
s(g89
g202
tp5306
I0
s(g134
g12
tp5307
I0
s(g6
g80
tp5308
I0
s(g82
g68
tp5309
I0
s(g199
g8
tp5310
I0
s(g8
g26
tp5311
I0
s(g210
g89
tp5312
I0
s(g276
g3
tp5313
I0
s(g84
g49
tp5314
I0
s(g80
g87
tp5315
I0
s(g214
g41
tp5316
I0
s(g173
g116
tp5317
I0
s(g14
g42
tp5318
I0
s(g9
g12
tp5319
I0
s(g24
g44
tp5320
I0
s(g42
g113
tp5321
I0
s(g76
g60
tp5322
I0
s(g87
g129
tp5323
I0
s(g64
g3
tp5324
I0
s(g20
g87
tp5325
I0
s(g172
g49
tp5326
I0
s(g45
g89
tp5327
I0
s(g84
g18
tp5328
I0
s(g20
g172
tp5329
I0
s(g21
g115
tp5330
I0
s(g82
g62
tp5331
I0
s(g103
g26
tp5332
I0
s(g113
g87
tp5333
I0
s(g129
g15
tp5334
I0
s(g15
g76
tp5335
I0
s(g2
g18
tp5336
I0
s(g2
g31
tp5337
I0
s(g113
g124
tp5338
I0
s(g18
g14
tp5339
I0
s(g116
g56
tp5340
F0.51282051282051277
s(g49
g99
tp5341
I0
s(g56
g5
tp5342
I0
s(g124
g90
tp5343
I0
s(g210
g31
tp5344
I0
s(g3
g5
tp5345
I0
s(g12
g84
tp5346
I0
s(g89
g8
tp5347
I0
s(g76
g109
tp5348
I0
s(g202
g67
tp5349
I0
s(g134
g218
tp5350
I0
s(g115
g84
tp5351
I0
s(g89
g116
tp5352
I0
s(g214
g109
tp5353
I0
s(g41
g134
tp5354
I0
s(g267
g116
tp5355
I0
s(g87
g67
tp5356
I0
s(g267
g109
tp5357
I0
s(g21
g2
tp5358
I0
s(g115
g214
tp5359
I0
s(g70
g276
tp5360
I0
s(g49
g2
tp5361
I0
s(g27
g38
tp5362
I0
s(g15
g276
tp5363
I0
s(g90
g126
tp5364
I0
s(g29
g17
tp5365
I0
s(g27
g113
tp5366
I0
s(g54
g214
tp5367
I0
s(g67
g241
tp5368
I0
s(g58
g21
tp5369
I0
s(g39
g11
tp5370
I0
s(g56
g134
tp5371
I0
s(g123
g96
tp5372
I0
s(g173
g31
tp5373
I0
s(g87
g62
tp5374
I0
s(g27
g56
tp5375
I0
s(g267
g214
tp5376
I0
s(g14
g5
tp5377
I0
s(g99
g8
tp5378
I0
s(g44
g58
tp5379
I0
s(g103
g84
tp5380
I0
s(g116
g44
tp5381
I0
s(g118
g173
tp5382
I0
s(g199
g210
tp5383
I0
s(g80
g24
tp5384
I0
s(g18
g42
tp5385
I0
s(g173
g5
tp5386
I0
s(g118
g103
tp5387
I0
s(g65
g6
tp5388
I0
s(g2
g67
tp5389
I0
s(g31
g123
tp5390
I0
s(g70
g134
tp5391
I0
s(g44
g172
tp5392
I0
s(g39
g44
tp5393
I0
s(g173
g56
tp5394
I0
s(g56
g76
tp5395
I0
s(g49
g115
tp5396
I0
s(g3
g26
tp5397
I0
s(g3
g3
tp5398
F0.61382113821138207
s(g24
g50
tp5399
I0
s(g54
g87
tp5400
I0
s(g123
g116
tp5401
I0
s(g23
g18
tp5402
I0
s(g56
g240
tp5403
I0
s(g113
g105
tp5404
I0
s(g123
g111
tp5405
I0
s(g31
g15
tp5406
I0
s(g68
g23
tp5407
I0
s(g50
g60
tp5408
I0
s(g42
g210
tp5409
I0
s(g27
g74
tp5410
I0
s(g89
g31
tp5411
I0
s(g70
g87
tp5412
I0
s(g32
g124
tp5413
I0
s(g118
g38
tp5414
I0
s(g6
g113
tp5415
I0
s(g82
g50
tp5416
I0
s(g9
g14
tp5417
I0
s(g67
g64
tp5418
I0
s(g118
g44
tp5419
I0
s(g116
g36
tp5420
I0
s(g210
g96
tp5421
I0
s(g123
g129
tp5422
I0
s(g64
g44
tp5423
I0
s(g78
g34
tp5424
I0
s(g9
g202
tp5425
I0
s(g124
g42
tp5426
I0
s(g67
g24
tp5427
I0
s(g96
g36
tp5428
I0
s(g29
g29
tp5429
F0.33333333333333331
s(g118
g8
tp5430
I0
s(g21
g21
tp5431
F0.47826086956521741
s(g70
g103
tp5432
I0
s(g202
g56
tp5433
F0.22641509433962265
s(g80
g126
tp5434
I0
s(g109
g276
tp5435
I0
s(g70
g267
tp5436
I0
s(g5
g41
tp5437
I0
s(g126
g163
tp5438
I0
s(g8
g202
tp5439
I0
s(g199
g99
tp5440
I0
s(g78
g241
tp5441
I0
s(g12
g111
tp5442
I0
s(g173
g163
tp5443
I0
s(g24
g94
tp5444
I0
s(g21
g20
tp5445
I0
s(g199
g5
tp5446
F0.42040816326530611
s(g111
g123
tp5447
I0
s(g56
g173
tp5448
I0
s(g65
g99
tp5449
I0
s(g108
g2
tp5450
I0
s(g27
g116
tp5451
I0
s(g45
g118
tp5452
I0
s(g70
g26
tp5453
I0
s(g123
g58
tp5454
I0
s(g14
g18
tp5455
I0
s(g6
g9
tp5456
I0
s(g45
g6
tp5457
I0
s(g12
g80
tp5458
I0
s(g103
g12
tp5459
I0
s(g14
g111
tp5460
I0
s(g78
g54
tp5461
I0
s(g116
g80
tp5462
I0
s(g218
g96
tp5463
I0
s(g173
g18
tp5464
I0
s(g52
g24
tp5465
I0
s(g99
g64
tp5466
I0
s(g74
g21
tp5467
I0
s(g41
g34
tp5468
I0
s(g15
g38
tp5469
I0
s(g116
g8
tp5470
I0
s(g60
g36
tp5471
I0
s(g173
g172
tp5472
I0
s(g47
g199
tp5473
I0
s(g15
g49
tp5474
I0
s(g41
g38
tp5475
I0
s(g38
g47
tp5476
I0
s(g105
g11
tp5477
I0
s(g90
g45
tp5478
I0
s(g276
g36
tp5479
I0
s(g60
g29
tp5480
I0
s(g70
g47
tp5481
I0
s(g5
g52
tp5482
I0
s(g70
g90
tp5483
I0
s(g23
g5
tp5484
I0
s(g172
g89
tp5485
I0
s(g124
g68
tp5486
I0
s(g116
g38
tp5487
I0
s(g17
g45
tp5488
I0
s(g89
g123
tp5489
I0
s(g214
g218
tp5490
F0.55555555555555558
s(g18
g38
tp5491
I0
s(g202
g214
tp5492
I0
s(g49
g54
tp5493
I0
s(g123
g267
tp5494
I0
s(g32
g49
tp5495
I0
s(g41
g214
tp5496
I0
s(g80
g115
tp5497
I0
s(g134
g64
tp5498
I0
s(g11
g65
tp5499
I0
s(g34
g38
tp5500
I0
s(g172
g23
tp5501
F0.66666666666666663
s(g6
g62
tp5502
I0
s(g109
g199
tp5503
I0
s(g42
g276
tp5504
I0
s(g23
g163
tp5505
F0.32500000000000001
s(g129
g115
tp5506
I0
s(g89
g172
tp5507
I0
s(g108
g17
tp5508
I0
s(g62
g47
tp5509
I0
s(g267
g240
tp5510
I0
s(g39
g126
tp5511
I0
s(g82
g32
tp5512
I0
s(g241
g9
tp5513
I0
s(g108
g124
tp5514
I0
s(g52
g3
tp5515
I0
s(g115
g210
tp5516
I0
s(g67
g78
tp5517
I0
s(g39
g14
tp5518
I0
s(g64
g109
tp5519
I0
s(g67
g52
tp5520
I0
s(g34
g99
tp5521
I0
s(g36
g62
tp5522
I0
s(g50
g14
tp5523
I0
s(g45
g39
tp5524
I0
s(g14
g70
tp5525
I0
s(g26
g41
tp5526
I0
s(g44
g118
tp5527
I0
s(g29
g111
tp5528
I0
s(g163
g44
tp5529
I0
s(g8
g80
tp5530
I0
s(g173
g124
tp5531
I0
s(g54
g34
tp5532
I0
s(g3
g56
tp5533
I0
s(g123
g11
tp5534
I0
s(g80
g15
tp5535
I0
s(g84
g36
tp5536
I0
s(g113
g60
tp5537
F0.33333333333333331
s(g276
g31
tp5538
I0
s(g163
g241
tp5539
I0
s(g109
g126
tp5540
I0
s(g14
g173
tp5541
I0
s(g113
g52
tp5542
I0
s(g108
g214
tp5543
I0
s(g44
g12
tp5544
I0
s(g5
g54
tp5545
I0
s(g134
g134
tp5546
F0.5
s(g9
g80
tp5547
I0
s(g20
g42
tp5548
I0
s(g54
g199
tp5549
I0
s(g172
g105
tp5550
I0
s(g210
g123
tp5551
I0
s(g172
g126
tp5552
I0
s(g111
g65
tp5553
I0
s(g42
g241
tp5554
I0
s(g96
g124
tp5555
I0
s(g5
g21
tp5556
I0
s(g45
g15
tp5557
I0
s(g126
g240
tp5558
I0
s(g78
g9
tp5559
I0
s(g47
g210
tp5560
I0
s(g87
g124
tp5561
I0
s(g20
g36
tp5562
I0
s(g6
g54
tp5563
I0
s(g58
g123
tp5564
I0
s(g44
g23
tp5565
I0
s(g67
g94
tp5566
I0
s(g84
g2
tp5567
I0
s(g173
g103
tp5568
I0
s(g9
g2
tp5569
F0.19959266802443992
s(g96
g218
tp5570
I0
s(g267
g202
tp5571
I0
s(g52
g58
tp5572
I0
s(g90
g34
tp5573
I0
s(g39
g111
tp5574
I0
s(g218
g56
tp5575
I0
s(g202
g38
tp5576
I0
s(g54
g3
tp5577
I0
s(g276
g47
tp5578
I0
s(g241
g99
tp5579
I0
s(g90
g64
tp5580
I0
s(g267
g44
tp5581
I0
s(g129
g129
tp5582
F0.44516129032258067
s(g64
g70
tp5583
I0
s(g3
g134
tp5584
I0
s(g24
g14
tp5585
I0
s(g113
g56
tp5586
I0
s(g173
g241
tp5587
I0
s(g54
g15
tp5588
I0
s(g94
g68
tp5589
F0.5
s(g163
g3
tp5590
I0
s(g52
g113
tp5591
I0
s(g240
g65
tp5592
I0
s(g202
g276
tp5593
I0
s(g82
g21
tp5594
F0.5
s(g54
g172
tp5595
I0
s(g32
g41
tp5596
I0
s(g68
g173
tp5597
I0
s(g17
g118
tp5598
I0
s(g82
g3
tp5599
I0
s(g67
g108
tp5600
I0
s(g89
g78
tp5601
I0
s(g34
g276
tp5602
I0
s(g50
g94
tp5603
I0
s(g202
g163
tp5604
I0
s(g109
g78
tp5605
I0
s(g5
g12
tp5606
I0
s(g39
g123
tp5607
I0
s(g49
g58
tp5608
I0
s(g58
g60
tp5609
I0
s(g96
g116
tp5610
I0
s(g80
g124
tp5611
I0
s(g103
g65
tp5612
I0
s(g134
g99
tp5613
I0
s(g3
g15
tp5614
I0
s(g20
g103
tp5615
I0
s(g54
g45
tp5616
I0
s(g74
g54
tp5617
I0
s(g12
g44
tp5618
I0
s(g123
g44
tp5619
I0
s(g65
g94
tp5620
I0
s(g44
g18
tp5621
I0
s(g68
g276
tp5622
I0
s(g105
g89
tp5623
I0
s(g90
g241
tp5624
I0
s(g115
g45
tp5625
I0
s(g27
g64
tp5626
I0
s(g199
g87
tp5627
I0
s(g115
g124
tp5628
I0
s(g3
g64
tp5629
I0
s(g8
g108
tp5630
I0
s(g118
g11
tp5631
I0
s(g34
g47
tp5632
I0
s(g9
g76
tp5633
I0
s(g34
g90
tp5634
I0
s(g21
g34
tp5635
I0
s(g32
g24
tp5636
I0
s(g111
g109
tp5637
I0
s(g276
g87
tp5638
I0
s(g50
g50
tp5639
F0.47979797979797978
s(g8
g118
tp5640
I0
s(g105
g64
tp5641
I0
s(g60
g3
tp5642
I0
s(g42
g8
tp5643
I0
s(g34
g82
tp5644
F0.54545454545454541
s(g6
g82
tp5645
I0
s(g67
g26
tp5646
I0
s(g5
g109
tp5647
I0
s(g29
g9
tp5648
I0
s(g103
g82
tp5649
I0
s(g45
g276
tp5650
I0
s(g56
g94
tp5651
I0
s(g50
g68
tp5652
I0
s(g111
g12
tp5653
I0
s(g108
g8
tp5654
I0
s(g3
g47
tp5655
I0
s(g276
g20
tp5656
I0
s(g39
g21
tp5657
I0
s(g47
g108
tp5658
I0
s(g116
g82
tp5659
I0
s(g276
g134
tp5660
I0
s(g23
g267
tp5661
I0
s(g214
g64
tp5662
I0
s(g82
g52
tp5663
I0
s(g134
g36
tp5664
I0
s(g116
g108
tp5665
I0
s(g199
g20
tp5666
I0
s(g240
g26
tp5667
I0
s(g6
g108
tp5668
I0
s(g36
g14
tp5669
I0
s(g52
g210
tp5670
I0
s(g115
g68
tp5671
I0
s(g2
g8
tp5672
I0
s(g3
g241
tp5673
F0.04878048780487805
s(g45
g68
tp5674
I0
s(g134
g6
tp5675
I0
s(g172
g74
tp5676
I0
s(g31
g12
tp5677
I0
s(g90
g23
tp5678
I0
s(g52
g90
tp5679
I0
s(g12
g12
tp5680
F0.80000000000000004
s(g103
g20
tp5681
I0
s(g5
g123
tp5682
I0
s(g54
g68
tp5683
I0
s(g26
g54
tp5684
I0
s(g96
g56
tp5685
I0
s(g109
g108
tp5686
I0
s(g82
g42
tp5687
I0
s(g56
g68
tp5688
I0
s(g41
g67
tp5689
I0
s(g60
g12
tp5690
I0
s(g52
g82
tp5691
I0
s(g64
g99
tp5692
I0
s(g126
g108
tp5693
I0
s(g87
g134
tp5694
I0
s(g105
g67
tp5695
I0
s(g27
g14
tp5696
I0
s(g2
g113
tp5697
I0
s(g44
g20
tp5698
I0
s(g99
g214
tp5699
I0
s(g89
g96
tp5700
I0
s(g64
g163
tp5701
I0
s(g17
g58
tp5702
I0
s(g27
g96
tp5703
I0
s(g60
g78
tp5704
I0
s(g58
g49
tp5705
I0
s(g18
g123
tp5706
I0
s(g62
g163
tp5707
I0
s(g214
g90
tp5708
I0
s(g82
g41
tp5709
I0
s(g54
g276
tp5710
I0
s(g2
g199
tp5711
I0
s(g96
g113
tp5712
I0
s(g68
g39
tp5713
I0
s(g82
g126
tp5714
I0
s(g109
g50
tp5715
I0
s(g129
g64
tp5716
I0
s(g94
g34
tp5717
I0
s(g23
g67
tp5718
I0
s(g64
g2
tp5719
I0
s(g21
g78
tp5720
I0
s(g3
g105
tp5721
I0
s(g163
g36
tp5722
I0
s(g241
g60
tp5723
I0
s(g32
g173
tp5724
I0
s(g214
g27
tp5725
I0
s(g18
g134
tp5726
I0
s(g199
g54
tp5727
I0
s(g65
g172
tp5728
I0
s(g21
g12
tp5729
I0
s(g218
g87
tp5730
I0
s(g90
g105
tp5731
I0
s(g49
g82
tp5732
I0
s(g5
g50
tp5733
I0
s(g58
g240
tp5734
I0
s(g82
g276
tp5735
I0
s(g118
g82
tp5736
I0
s(g54
g27
tp5737
I0
s(g47
g20
tp5738
I0
s(g14
g210
tp5739
I0
s(g32
g70
tp5740
I0
s(g68
g49
tp5741
I0
s(g123
g39
tp5742
I0
s(g123
g47
tp5743
I0
s(g24
g62
tp5744
I0
s(g108
g134
tp5745
I0
s(g240
g23
tp5746
I0
s(g2
g70
tp5747
I0
s(g113
g76
tp5748
I0
s(g240
g50
tp5749
I0
s(g267
g84
tp5750
I0
s(g62
g84
tp5751
I0
s(g163
g116
tp5752
I0
s(g52
g49
tp5753
I0
s(g76
g2
tp5754
I0
s(g210
g70
tp5755
I0
s(g74
g45
tp5756
I0
s(g12
g129
tp5757
I0
s(g39
g109
tp5758
I0
s(g80
g14
tp5759
I0
s(g20
g50
tp5760
I0
s(g38
g108
tp5761
I0
s(g126
g82
tp5762
I0
s(g123
g123
tp5763
F0.56164383561643838
s(g267
g52
tp5764
I0
s(g29
g124
tp5765
I0
s(g82
g87
tp5766
I0
s(g49
g44
tp5767
I0
s(g89
g14
tp5768
I0
s(g108
g60
tp5769
I0
s(g276
g34
tp5770
I0
s(g8
g199
tp5771
I0
s(g78
g218
tp5772
I0
s(g210
g134
tp5773
I0
s(g126
g47
tp5774
I0
s(g84
g105
tp5775
I0
s(g52
g214
tp5776
I0
s(g173
g32
tp5777
I0
s(g76
g36
tp5778
I0
s(g3
g6
tp5779
I0
s(g23
g65
tp5780
I0
s(g5
g64
tp5781
I0
s(g267
g39
tp5782
I0
s(g12
g115
tp5783
I0
s(g241
g45
tp5784
I0
s(g218
g163
tp5785
I0
s(g103
g38
tp5786
I0
s(g3
g210
tp5787
I0
s(g134
g49
tp5788
I0
s(g11
g21
tp5789
I0
s(g24
g9
tp5790
I0
s(g276
g109
tp5791
I0
s(g84
g21
tp5792
I0
s(g15
g14
tp5793
I0
s(g276
g116
tp5794
I0
s(g47
g24
tp5795
I0
s(g126
g11
tp5796
I0
s(g3
g17
tp5797
I0
s(g11
g108
tp5798
I0
s(g20
g82
tp5799
I0
s(g82
g199
tp5800
I0
s(g163
g173
tp5801
I0
s(g199
g3
tp5802
I0
s(g172
g172
tp5803
F0.25925925925925924
s(g42
g17
tp5804
I0
s(g31
g124
tp5805
I0
s(g45
g8
tp5806
F0.25
s(g240
g103
tp5807
I0
s(g108
g115
tp5808
I0
s(g218
g5
tp5809
I0
s(g64
g27
tp5810
I0
s(g202
g32
tp5811
I0
s(g87
g2
tp5812
I0
s(g32
g76
tp5813
I0
s(g44
g99
tp5814
I0
s(g49
g26
tp5815
I0
s(g96
g3
tp5816
I0
s(g163
g70
tp5817
I0
s(g14
g113
tp5818
I0
s(g3
g163
tp5819
I0
s(g78
g94
tp5820
I0
s(g45
g129
tp5821
I0
s(g31
g68
tp5822
I0
s(g129
g65
tp5823
I0
s(g267
g31
tp5824
I0
s(g32
g21
tp5825
I0
s(g84
g115
tp5826
I0
s(g44
g109
tp5827
F0.50657894736842102
s(g84
g47
tp5828
I0
s(g124
g202
tp5829
I0
s(g54
g29
tp5830
I0
s(g58
g52
tp5831
I0
s(g8
g78
tp5832
I0
s(g42
g15
tp5833
I0
s(g27
g6
tp5834
I0
s(g2
g47
tp5835
I0
s(g111
g240
tp5836
I0
s(g94
g87
tp5837
I0
s(g60
g42
tp5838
I0
s(g6
g210
tp5839
I0
s(g202
g118
tp5840
I0
s(g105
g94
tp5841
I0
s(g199
g12
tp5842
I0
s(g24
g17
tp5843
I0
s(g49
g70
tp5844
I0
s(g11
g76
tp5845
I0
s(g84
g23
tp5846
I0
s(g14
g241
tp5847
I0
s(g96
g173
tp5848
I0
s(g9
g126
tp5849
I0
s(g21
g74
tp5850
I0
s(g90
g80
tp5851
I0
s(g108
g67
tp5852
I0
s(g134
g20
tp5853
I0
s(g202
g62
tp5854
I0
s(g276
g6
tp5855
I0
s(g58
g42
tp5856
I0
s(g76
g76
tp5857
F0.5
s(g26
g47
tp5858
I0
s(g87
g58
tp5859
I0
s(g36
g29
tp5860
I0
s(g65
g47
tp5861
I0
s(g126
g68
tp5862
I0
s(g49
g41
tp5863
I0
s(g3
g109
tp5864
I0
s(g74
g267
tp5865
I0
s(g18
g202
tp5866
I0
s(g173
g29
tp5867
I0
s(g9
g118
tp5868
I0
s(g94
g199
tp5869
I0
s(g58
g218
tp5870
I0
s(g39
g62
tp5871
I0
s(g58
g94
tp5872
I0
s(g115
g11
tp5873
F0.3273542600896861
s(g56
g123
tp5874
I0
s(g52
g70
tp5875
I0
s(g65
g32
tp5876
I0
s(g94
g11
tp5877
I0
s(g90
g6
tp5878
I0
s(g32
g20
tp5879
F0.18571428571428572
s(g67
g202
tp5880
I0
s(g199
g52
tp5881
I0
s(g14
g23
tp5882
I0
s(g129
g68
tp5883
I0
s(g3
g103
tp5884
I0
s(g70
g58
tp5885
I0
s(g109
g39
tp5886
I0
s(g115
g26
tp5887
I0
s(g34
g52
tp5888
I0
s(g21
g36
tp5889
I0
s(g94
g214
tp5890
I0
s(g29
g20
tp5891
I0
s(g99
g3
tp5892
I0
s(g267
g210
tp5893
I0
s(g31
g80
tp5894
I0
s(g76
g26
tp5895
I0
s(g64
g64
tp5896
I0
s(g5
g47
tp5897
I0
s(g108
g105
tp5898
I0
s(g267
g58
tp5899
I0
s(g82
g65
tp5900
I0
s(g64
g23
tp5901
I0
s(g23
g8
tp5902
I0
s(g68
g44
tp5903
I0
s(g78
g62
tp5904
I0
s(g50
g202
tp5905
I0
s(g18
g64
tp5906
I0
s(g241
g240
tp5907
I0
s(g65
g67
tp5908
I0
s(g8
g34
tp5909
I0
s(g124
g172
tp5910
F0.081081081081081086
s(g82
g15
tp5911
I0
s(g3
g90
tp5912
I0
s(g241
g27
tp5913
I0
s(g6
g38
tp5914
I0
s(g96
g115
tp5915
I0
s(g67
g8
tp5916
I0
s(g58
g45
tp5917
I0
s(g129
g108
tp5918
I0
s(g134
g38
tp5919
I0
s(g94
g105
tp5920
I0
s(g70
g64
tp5921
I0
s(g45
g11
tp5922
I0
s(g67
g20
tp5923
I0
s(g42
g124
tp5924
I0
s(g199
g56
tp5925
I0
s(g115
g32
tp5926
I0
s(g49
g105
tp5927
I0
s(g3
g84
tp5928
I0
s(g62
g124
tp5929
I0
s(g20
g173
tp5930
I0
s(g62
g70
tp5931
I0
s(g163
g82
tp5932
I0
s(g108
g47
tp5933
I0
s(g116
g62
tp5934
I0
s(g38
g45
tp5935
I0
s(g111
g47
tp5936
I0
s(g41
g276
tp5937
I0
s(g78
g29
tp5938
F0.52173913043478259
s(g118
g129
tp5939
I0
s(g70
g45
tp5940
I0
s(g241
g20
tp5941
I0
s(g12
g41
tp5942
I0
s(g78
g24
tp5943
I0
s(g109
g2
tp5944
I0
s(g50
g11
tp5945
I0
s(g87
g210
tp5946
I0
s(g108
g82
tp5947
I0
s(g26
g20
tp5948
I0
s(g199
g96
tp5949
I0
s(g62
g108
tp5950
I0
s(g113
g20
tp5951
I0
s(g84
g27
tp5952
I0
s(g54
g218
tp5953
I0
s(g96
g21
tp5954
I0
s(g50
g214
tp5955
I0
s(g31
g62
tp5956
I0
s(g6
g103
tp5957
F0.056521739130434782
s(g78
g42
tp5958
I0
s(g89
g126
tp5959
I0
s(g111
g42
tp5960
I0
s(g89
g74
tp5961
I0
s(g276
g111
tp5962
I0
s(g173
g41
tp5963
I0
s(g38
g17
tp5964
I0
s(g27
g15
tp5965
I0
s(g210
g105
tp5966
I0
s(g31
g34
tp5967
I0
s(g105
g24
tp5968
I0
s(g199
g50
tp5969
I0
s(g118
g20
tp5970
I0
s(g94
g126
tp5971
I0
s(g31
g56
tp5972
I0
s(g27
g32
tp5973
I0
s(g105
g62
tp5974
I0
s(g70
g27
tp5975
I0
s(g84
g20
tp5976
I0
s(g14
g62
tp5977
I0
s(g31
g64
tp5978
I0
s(g49
g84
tp5979
I0
s(g15
g124
tp5980
I0
s(g38
g123
tp5981
I0
s(g49
g32
tp5982
I0
s(g129
g60
tp5983
I0
s(g20
g27
tp5984
I0
s(g26
g115
tp5985
I0
s(g267
g60
tp5986
I0
s(g96
g82
tp5987
I0
s(g96
g31
tp5988
I0
s(g241
g24
tp5989
I0
s(g113
g134
tp5990
I0
s(g24
g84
tp5991
I0
s(g80
g49
tp5992
I0
s(g12
g70
tp5993
I0
s(g124
g54
tp5994
I0
s(g49
g202
tp5995
I0
s(g31
g89
tp5996
I0
s(g210
g50
tp5997
I0
s(g173
g74
tp5998
F1
s(g8
g129
tp5999
I0
s(g276
g124
tp6000
I0
s(g36
g52
tp6001
I0
s(g89
g49
tp6002
I0
s(g20
g94
tp6003
I0
s(g218
g103
tp6004
I0
s(g74
g56
tp6005
I0
s(g108
g26
tp6006
F0.19844357976653695
s(g38
g68
tp6007
I0
s(g111
g54
tp6008
I0
s(g80
g65
tp6009
I0
s(g80
g123
tp6010
I0
s(g241
g39
tp6011
I0
s(g111
g17
tp6012
I0
s(g9
g199
tp6013
I0
s(g54
g109
tp6014
I0
s(g64
g240
tp6015
I0
s(g6
g52
tp6016
I0
s(g11
g99
tp6017
I0
s(g99
g2
tp6018
I0
s(g218
g109
tp6019
I0
s(g276
g14
tp6020
I0
s(g21
g47
tp6021
I0
s(g44
g29
tp6022
I0
s(g58
g41
tp6023
I0
s(g50
g78
tp6024
I0
s(g26
g50
tp6025
F0.39147286821705424
s(g116
g267
tp6026
I0
s(g56
g87
tp6027
I0
s(g24
g76
tp6028
I0
s(g82
g80
tp6029
I0
s(g65
g89
tp6030
I0
s(g124
g108
tp6031
I0
s(g111
g60
tp6032
I0
s(g99
g50
tp6033
I0
s(g199
g82
tp6034
I0
s(g49
g163
tp6035
I0
s(g105
g87
tp6036
I0
s(g218
g12
tp6037
I0
s(g26
g44
tp6038
I0
s(g24
g103
tp6039
I0
s(g173
g49
tp6040
I0
s(g68
g99
tp6041
I0
s(g118
g49
tp6042
I0
s(g23
g58
tp6043
I0
s(g21
g89
tp6044
I0
s(g109
g124
tp6045
I0
s(g74
g218
tp6046
I0
s(g39
g118
tp6047
I0
s(g67
g74
tp6048
I0
s(g23
g44
tp6049
I0
s(g210
g58
tp6050
I0
s(g78
g129
tp6051
I0
s(g109
g87
tp6052
I0
s(g105
g39
tp6053
I0
s(g62
g11
tp6054
I0
s(g27
g39
tp6055
I0
s(g32
g115
tp6056
F0.25714285714285712
s(g29
g267
tp6057
I0
s(g31
g60
tp6058
I0
s(g54
g134
tp6059
I0
s(g36
g199
tp6060
I0
s(g116
g34
tp6061
I0
s(g49
g52
tp6062
I0
s(g15
g41
tp6063
I0
s(g47
g76
tp6064
I0
s(g99
g9
tp6065
I0
s(g84
g67
tp6066
I0
s(g210
g12
tp6067
I0
s(g38
g118
tp6068
I0
s(g163
g99
tp6069
I0
s(g11
g52
tp6070
I0
s(g18
g26
tp6071
I0
s(g8
g267
tp6072
I0
s(g116
g214
tp6073
I0
s(g78
g68
tp6074
I0
s(g276
g18
tp6075
I0
s(g56
g109
tp6076
I0
s(g82
g8
tp6077
I0
s(g113
g111
tp6078
I0
s(g45
g124
tp6079
I0
s(g45
g108
tp6080
I0
s(g12
g17
tp6081
I0
s(g96
g214
tp6082
I0
s(g74
g126
tp6083
I0
s(g124
g96
tp6084
I0
s(g118
g50
tp6085
I0
s(g65
g3
tp6086
I0
s(g116
g89
tp6087
I0
s(g199
g44
tp6088
I0
s(g52
g74
tp6089
I0
s(g276
g9
tp6090
I0
s(g50
g115
tp6091
I0
s(g26
g103
tp6092
I0
s(g94
g44
tp6093
I0
s(g60
g6
tp6094
I0
s(g199
g36
tp6095
I0
s(g202
g24
tp6096
I0
s(g17
g123
tp6097
I0
s(g6
g20
tp6098
I0
s(g94
g58
tp6099
I0
s(g70
g15
tp6100
I0
s(g34
g89
tp6101
I0
s(g45
g34
tp6102
I0
s(g74
g42
tp6103
I0
s(g241
g15
tp6104
I0
s(g21
g90
tp6105
I0
s(g9
g116
tp6106
I0
s(g32
g26
tp6107
I0
s(g32
g52
tp6108
I0
s(g17
g5
tp6109
I0
s(g44
g5
tp6110
I0
s(g129
g240
tp6111
I0
s(g41
g129
tp6112
I0
s(g11
g241
tp6113
I0
s(g21
g82
tp6114
I0
s(g74
g32
tp6115
I0
s(g82
g103
tp6116
I0
s(g111
g58
tp6117
I0
s(g214
g240
tp6118
I0
s(g124
g74
tp6119
I0
s(g42
g12
tp6120
I0
s(g54
g21
tp6121
I0
s(g218
g17
tp6122
I0
s(g8
g68
tp6123
I0
s(g267
g105
tp6124
I0
s(g21
g11
tp6125
I0
s(g218
g241
tp6126
I0
s(g29
g108
tp6127
I0
s(g90
g3
tp6128
I0
s(g163
g6
tp6129
I0
s(g126
g20
tp6130
I0
s(g26
g38
tp6131
I0
s(g218
g276
tp6132
I0
s(g64
g126
tp6133
I0
s(g11
g54
tp6134
I0
s(g68
g105
tp6135
I0
s(g3
g49
tp6136
I0
s(g76
g47
tp6137
I0
s(g24
g163
tp6138
I0
s(g202
g109
tp6139
I0
s(g42
g26
tp6140
I0
s(g163
g21
tp6141
I0
s(g24
g115
tp6142
I0
s(g116
g202
tp6143
I0
s(g64
g60
tp6144
I0
s(g78
g39
tp6145
I0
s(g99
g54
tp6146
I0
s(g39
g74
tp6147
I0
s(g2
g26
tp6148
I0
s(g111
g3
tp6149
I0
s(g49
g27
tp6150
I0
s(g111
g267
tp6151
I0
s(g105
g202
tp6152
I0
s(g76
g14
tp6153
I0
s(g20
g74
tp6154
I0
s(g124
g267
tp6155
I0
s(g94
g3
tp6156
I0
s(g26
g67
tp6157
I0
s(g214
g14
tp6158
I0
s(g163
g56
tp6159
I0
s(g26
g15
tp6160
I0
s(g21
g38
tp6161
I0
s(g44
g74
tp6162
I0
s(g50
g44
tp6163
I0
s(g54
g58
tp6164
I0
s(g14
g109
tp6165
I0
s(g99
g60
tp6166
I0
s(g64
g56
tp6167
I0
s(g62
g129
tp6168
I0
s(g214
g45
tp6169
I0
s(g24
g129
tp6170
I0
s(g23
g126
tp6171
I0
s(g45
g173
tp6172
I0
s(g44
g113
tp6173
I0
s(g20
g54
tp6174
I0
s(g87
g108
tp6175
I0
s(g103
g17
tp6176
I0
s(g241
g129
tp6177
I0
s(g20
g6
tp6178
I0
s(g17
g47
tp6179
I0
s(g103
g36
tp6180
I0
s(g14
g80
tp6181
I0
s(g214
g172
tp6182
I0
s(g20
g134
tp6183
I0
s(g49
g210
tp6184
I0
s(g20
g241
tp6185
I0
s(g240
g123
tp6186
I0
s(g56
g218
tp6187
I0
s(g5
g45
tp6188
I0
s(g87
g76
tp6189
I0
s(g173
g80
tp6190
I0
s(g126
g124
tp6191
I0
s(g56
g2
tp6192
I0
s(g32
g84
tp6193
I0
s(g54
g111
tp6194
I0
s(g21
g44
tp6195
I0
s(g126
g80
tp6196
I0
s(g218
g58
tp6197
I0
s(g36
g9
tp6198
I0
s(g87
g34
tp6199
I0
s(g68
g109
tp6200
I0
s(g241
g54
tp6201
I0
s(g34
g118
tp6202
I0
s(g20
g89
tp6203
I0
s(g105
g23
tp6204
I0
s(g50
g3
tp6205
I0
s(g108
g108
tp6206
F0.80155642023346307
s(g31
g29
tp6207
I0
s(g54
g8
tp6208
I0
s(g82
g163
tp6209
I0
s(g89
g32
tp6210
I0
s(g2
g34
tp6211
I0
s(g39
g108
tp6212
I0
s(g9
g123
tp6213
I0
s(g2
g74
tp6214
I0
s(g172
g70
tp6215
I0
s(g70
g6
tp6216
I0
s(g36
g240
tp6217
I0
s(g240
g210
tp6218
I0
s(g80
g199
tp6219
I0
s(g129
g42
tp6220
I0
s(g109
g5
tp6221
I0
s(g218
g32
tp6222
I0
s(g6
g84
tp6223
I0
s(g96
g52
tp6224
I0
s(g163
g123
tp6225
I0
s(g2
g78
tp6226
I0
s(g214
g42
tp6227
I0
s(g56
g45
tp6228
I0
s(g5
g11
tp6229
I0
s(g172
g8
tp6230
I0
s(g42
g34
tp6231
I0
s(g17
g87
tp6232
I0
s(g64
g14
tp6233
I0
s(g23
g214
tp6234
I0
s(g58
g9
tp6235
I0
s(g240
g64
tp6236
I0
s(g118
g47
tp6237
I0
s(g116
g18
tp6238
I0
s(g23
g11
tp6239
I0
s(g8
g124
tp6240
I0
s(g108
g34
tp6241
I0
s(g199
g163
tp6242
I0
s(g105
g5
tp6243
I0
s(g115
g76
tp6244
I0
s(g124
g15
tp6245
I0
s(g126
g15
tp6246
I0
s(g64
g105
tp6247
I0
s(g74
g27
tp6248
I0
s(g23
g240
tp6249
I0
s(g115
g103
tp6250
I0
s(g111
g44
tp6251
I0
s(g199
g38
tp6252
I0
s(g89
g26
tp6253
I0
s(g84
g34
tp6254
I0
s(g124
g163
tp6255
I0
s(g18
g90
tp6256
I0
s(g54
g108
tp6257
I0
s(g56
g89
tp6258
I0
s(g32
g47
tp6259
I0
s(g129
g17
tp6260
I0
s(g34
g74
tp6261
I0
s(g113
g163
tp6262
I0
s(g45
g24
tp6263
I0
s(g116
g27
tp6264
I0
s(g109
g210
tp6265
I0
s(g5
g23
tp6266
I0
s(g5
g214
tp6267
I0
s(g49
g241
tp6268
I0
s(g26
g105
tp6269
I0
s(g96
g50
tp6270
I0
s(g67
g90
tp6271
I0
s(g99
g115
tp6272
I0
s(g34
g21
tp6273
I0
s(g109
g129
tp6274
I0
s(g21
g6
tp6275
I0
s(g29
g36
tp6276
I0
s(g90
g99
tp6277
I0
s(g276
g80
tp6278
I0
s(g99
g78
tp6279
I0
s(g60
g218
tp6280
I0
s(g123
g12
tp6281
I0
s(g32
g105
tp6282
I0
s(g240
g31
tp6283
I0
s(g54
g47
tp6284
I0
s(g241
g34
tp6285
F0.5
s(g11
g34
tp6286
I0
s(g163
g27
tp6287
I0
s(g202
g111
tp6288
I0
s(g108
g74
tp6289
I0
s(g36
g111
tp6290
I0
s(g74
g105
tp6291
I0
s(g20
g78
tp6292
I0
s(g5
g78
tp6293
I0
s(g8
g18
tp6294
I0
s(g124
g103
tp6295
I0
s(g18
g44
tp6296
I0
s(g99
g65
tp6297
I0
s(g6
g36
tp6298
I0
s(g94
g70
tp6299
I0
s(g113
g39
tp6300
I0
s(g64
g202
tp6301
I0
s(g82
g124
tp6302
I0
s(g218
g199
tp6303
I0
s(g123
g210
tp6304
I0
s(g49
g87
tp6305
I0
s(g8
g5
tp6306
I0
s(g42
g21
tp6307
I0
s(g54
g2
tp6308
I0
s(g45
g84
tp6309
I0
s(g123
g36
tp6310
I0
s(g47
g49
tp6311
I0
s(g44
g67
tp6312
I0
s(g44
g3
tp6313
I0
s(g240
g39
tp6314
I0
s(g9
g5
tp6315
I0
s(g267
g41
tp6316
I0
s(g38
g111
tp6317
I0
s(g45
g36
tp6318
F0.19444444444444445
s(g26
g42
tp6319
I0
s(g8
g173
tp6320
I0
s(g94
g31
tp6321
I0
s(g74
g76
tp6322
I0
s(g276
g52
tp6323
I0
s(g76
g99
tp6324
I0
s(g80
g58
tp6325
I0
s(g116
g26
tp6326
I0
s(g29
g103
tp6327
I0
s(g45
g52
tp6328
I0
s(g17
g15
tp6329
I0
s(g134
g27
tp6330
I0
s(g21
g105
tp6331
I0
s(g47
g5
tp6332
I0
s(g172
g240
tp6333
I0
s(g214
g87
tp6334
I0
s(g42
g82
tp6335
I0
s(g34
g44
tp6336
I0
s(g60
g32
tp6337
I0
s(g21
g109
tp6338
I0
s(g240
g36
tp6339
I0
s(g214
g17
tp6340
I0
s(g78
g214
tp6341
I0
s(g24
g116
tp6342
I0
s(g6
g26
tp6343
I0
s(g64
g11
tp6344
I0
s(g134
g90
tp6345
I0
s(g32
g123
tp6346
I0
s(g24
g109
tp6347
I0
s(g27
g111
tp6348
I0
s(g54
g5
tp6349
I0
s(g5
g14
tp6350
I0
s(g96
g68
tp6351
I0
s(g20
g23
tp6352
I0
s(g80
g2
tp6353
I0
s(g240
g84
tp6354
I0
s(g27
g21
tp6355
I0
s(g84
g134
tp6356
I0
s(g12
g31
tp6357
I0
s(g108
g32
tp6358
I0
s(g18
g70
tp6359
I0
s(g24
g214
tp6360
I0
s(g3
g32
tp6361
I0
s(g276
g76
tp6362
I0
s(g20
g9
tp6363
I0
s(g99
g172
tp6364
I0
s(g118
g2
tp6365
I0
s(g41
g80
tp6366
I0
s(g39
g214
tp6367
I0
s(g64
g52
tp6368
I0
s(g105
g210
tp6369
I0
s(g44
g8
tp6370
I0
s(g109
g103
tp6371
I0
s(g90
g67
tp6372
I0
s(g67
g67
tp6373
F0.5
s(g8
g60
tp6374
I0
s(g24
g89
tp6375
I0
s(g214
g214
tp6376
F0.44444444444444442
s(g87
g38
tp6377
I0
s(g41
g50
tp6378
I0
s(g67
g240
tp6379
I0
s(g21
g23
tp6380
I0
s(g62
g87
tp6381
F0.49519230769230771
s(g11
g163
tp6382
I0
s(g29
g60
tp6383
I0
s(g82
g118
tp6384
I0
s(g267
g129
tp6385
I0
s(g9
g60
tp6386
I0
s(g241
g210
tp6387
I0
s(g78
g108
tp6388
I0
s(g89
g41
tp6389
I0
s(g36
g18
tp6390
I0
s(g241
g134
tp6391
I0
s(g24
g124
tp6392
I0
s(g38
g173
tp6393
I0
s(g276
g96
tp6394
I0
s(g18
g241
tp6395
I0
s(g26
g45
tp6396
I0
s(g20
g113
tp6397
I0
s(g47
g44
tp6398
I0
s(g126
g3
tp6399
I0
s(g38
g163
tp6400
I0
s(g163
g172
tp6401
I0
s(g6
g172
tp6402
I0
s(g45
g26
tp6403
I0
s(g111
g14
tp6404
I0
s(g76
g78
tp6405
I0
s(g65
g36
tp6406
I0
s(g62
g134
tp6407
I0
s(g116
g11
tp6408
I0
s(g202
g9
tp6409
I0
s(g113
g126
tp6410
I0
s(g163
g78
tp6411
I0
s(g56
g49
tp6412
I0
s(g17
g68
tp6413
I0
s(g87
g36
tp6414
I0
s(g11
g9
tp6415
I0
s(g129
g24
tp6416
I0
s(g65
g17
tp6417
I0
s(g58
g17
tp6418
I0
s(g3
g21
tp6419
I0
s(g241
g202
tp6420
I0
s(g80
g241
tp6421
I0
s(g27
g65
tp6422
I0
s(g90
g31
tp6423
I0
s(g2
g5
tp6424
I0
s(g116
g3
tp6425
I0
s(g42
g214
tp6426
I0
s(g58
g20
tp6427
I0
s(g38
g18
tp6428
I0
s(g218
g50
tp6429
I0
s(g74
g199
tp6430
I0
s(g34
g8
tp6431
I0
s(g163
g84
tp6432
I0
s(g267
g54
tp6433
I0
s(g210
g5
tp6434
I0
s(g29
g18
tp6435
I0
s(g32
g218
tp6436
I0
s(g173
g2
tp6437
I0
s(g47
g105
tp6438
I0
s(g17
g41
tp6439
I0
s(g15
g9
tp6440
I0
s(g15
g103
tp6441
I0
s(g267
g20
tp6442
I0
s(g103
g78
tp6443
I0
s(g36
g42
tp6444
I0
s(g60
g20
tp6445
I0
s(g118
g116
tp6446
I0
s(g108
g163
tp6447
I0
s(g87
g23
tp6448
I0
s(g36
g6
tp6449
I0
s(g202
g202
tp6450
F0.70188679245283014
s(g134
g52
tp6451
I0
s(g103
g115
tp6452
I0
s(g115
g96
tp6453
I0
s(g50
g210
tp6454
I0
s(g126
g12
tp6455
I0
s(g32
g90
tp6456
I0
s(g21
g26
tp6457
I0
s(g38
g94
tp6458
I0
s(g84
g89
tp6459
I0
s(g56
g74
tp6460
I0
s(g267
g267
tp6461
F0.806949806949807
s(g105
g109
tp6462
I0
s(g27
g109
tp6463
I0
s(g17
g84
tp6464
I0
s(g109
g14
tp6465
I0
s(g241
g8
tp6466
I0
s(g26
g240
tp6467
I0
s(g99
g123
tp6468
I0
s(g11
g124
tp6469
I0
s(g241
g11
tp6470
I0
s(g96
g41
tp6471
I0
s(g202
g12
tp6472
I0
s(g118
g109
tp6473
I0
s(g41
g108
tp6474
I0
s(g109
g45
tp6475
I0
s(g45
g210
tp6476
I0
s(g123
g65
tp6477
I0
s(g118
g241
tp6478
I0
s(g56
g111
tp6479
I0
s(g18
g218
tp6480
I0
s(g172
g214
tp6481
I0
s(g38
g42
tp6482
I0
s(g173
g3
tp6483
I0
s(g103
g44
tp6484
I0
s(g32
g116
tp6485
I0
s(g15
g214
tp6486
I0
s(g118
g12
tp6487
I0
s(g129
g199
tp6488
I0
s(g96
g123
tp6489
F0.5
s(g240
g78
tp6490
I0
s(g80
g240
tp6491
I0
s(g103
g45
tp6492
I0
s(g45
g82
tp6493
I0
s(g45
g47
tp6494
I0
s(g42
g9
tp6495
I0
s(g32
g64
tp6496
I0
s(g6
g89
tp6497
I0
s(g23
g108
tp6498
I0
s(g18
g113
tp6499
I0
s(g67
g62
tp6500
I0
s(g21
g49
tp6501
I0
s(g58
g2
tp6502
I0
s(g60
g90
tp6503
I0
s(g90
g78
tp6504
I0
s(g94
g27
tp6505
I0
s(g108
g118
tp6506
I0
s(g210
g49
tp6507
I0
s(g214
g20
tp6508
I0
s(g267
g11
tp6509
I0
s(g31
g111
tp6510
I0
s(g70
g218
tp6511
I0
s(g24
g118
tp6512
I0
s(g64
g210
tp6513
I0
s(g80
g50
tp6514
I0
s(g115
g17
tp6515
I0
s(g62
g15
tp6516
I0
s(g94
g90
tp6517
I0
s(g20
g29
tp6518
I0
s(g18
g8
tp6519
I0
s(g94
g210
tp6520
I0
s(g67
g49
tp6521
I0
s(g113
g108
tp6522
I0
s(g18
g116
tp6523
I0
s(g163
g218
tp6524
I0
s(g56
g58
tp6525
I0
s(g241
g31
tp6526
I0
s(g42
g62
tp6527
I0
s(g115
g202
tp6528
I0
s(g26
g241
tp6529
I0
s(g38
g103
tp6530
I0
s(g44
g163
tp6531
I0
s(g23
g68
tp6532
I0
s(g21
g31
tp6533
I0
s(g218
g41
tp6534
I0
s(g50
g113
tp6535
I0
s(g76
g44
tp6536
I0
s(g27
g115
tp6537
I0
s(g89
g109
tp6538
I0
s(g65
g96
tp6539
I0
s(g15
g60
tp6540
I0
s(g67
g9
tp6541
I0
s(g65
g199
tp6542
I0
s(g36
g8
tp6543
F1
s(g23
g129
tp6544
I0
s(g41
g20
tp6545
I0
s(g108
g90
tp6546
I0
s(g65
g124
tp6547
I0
s(g78
g44
tp6548
I0
s(g67
g50
tp6549
I0
s(g2
g94
tp6550
I0
s(g58
g267
tp6551
F0.49504950495049505
s(g45
g64
tp6552
I0
s(g113
g15
tp6553
I0
s(g134
g29
tp6554
I0
s(g36
g118
tp6555
I0
s(g84
g6
tp6556
I0
s(g56
g15
tp6557
I0
s(g116
g20
tp6558
I0
s(g6
g11
tp6559
I0
s(g116
g276
tp6560
I0
s(g124
g5
tp6561
I0
s(g2
g241
tp6562
I0
s(g2
g2
tp6563
F0.59836065573770492
s(g49
g38
tp6564
I0
s(g115
g123
tp6565
I0
s(g84
g38
tp6566
I0
s(g99
g118
tp6567
I0
s(g163
g54
tp6568
I0
s(g45
g60
tp6569
I0
s(g31
g240
tp6570
I0
s(g34
g20
tp6571
I0
s(g38
g84
tp6572
I0
s(g118
g105
tp6573
I0
s(g65
g62
tp6574
I0
s(g21
g27
tp6575
I0
s(g26
g31
tp6576
I0
s(g111
g26
tp6577
I0
s(g67
g15
tp6578
I0
s(g24
g41
tp6579
I0
s(g267
g62
tp6580
I0
s(g129
g32
tp6581
I0
s(g108
g49
tp6582
I0
s(g199
g241
tp6583
I0
s(g267
g78
tp6584
I0
s(g20
g2
tp6585
I0
s(g31
g74
tp6586
I0
s(g94
g74
tp6587
I0
s(g118
g9
tp6588
I0
s(g90
g276
tp6589
I0
s(g38
g36
tp6590
I0
s(g87
g41
tp6591
I0
s(g96
g90
tp6592
I0
s(g90
g44
tp6593
I0
s(g34
g9
tp6594
I0
s(g115
g105
tp6595
I0
s(g109
g11
tp6596
I0
s(g52
g56
tp6597
I0
s(g134
g68
tp6598
I0
s(g62
g52
tp6599
I0
s(g58
g47
tp6600
I0
s(g116
g90
tp6601
I0
s(g62
g111
tp6602
I0
s(g12
g214
tp6603
I0
s(g31
g24
tp6604
I0
s(g80
g39
tp6605
I0
s(g21
g276
tp6606
I0
s(g113
g202
tp6607
I0
s(g12
g94
tp6608
I0
s(g45
g134
tp6609
I0
s(g52
g38
tp6610
I0
s(g14
g103
tp6611
I0
s(g94
g113
tp6612
I0
s(g31
g18
tp6613
I0
s(g11
g60
tp6614
I0
s(g96
g67
tp6615
I0
s(g94
g163
tp6616
I0
s(g36
g67
tp6617
I0
s(g45
g123
tp6618
I0
s(g115
g14
tp6619
I0
s(g134
g54
tp6620
I0
s(g134
g9
tp6621
I0
s(g54
g173
tp6622
I0
s(g70
g199
tp6623
I0
s(g3
g123
tp6624
I0
s(g32
g267
tp6625
I0
s(g12
g3
tp6626
I0
s(g210
g8
tp6627
I0
s(g241
g94
tp6628
I0
s(g27
g87
tp6629
I0
s(g3
g68
tp6630
I0
s(g76
g94
tp6631
F0.5
s(g96
g44
tp6632
I0
s(g115
g240
tp6633
I0
s(g3
g94
tp6634
I0
s(g29
g68
tp6635
I0
s(g34
g42
tp6636
I0
s(g113
g8
tp6637
I0
s(g68
g108
tp6638
I0
s(g5
g210
tp6639
I0
s(g210
g38
tp6640
I0
s(g49
g172
tp6641
I0
s(g74
g20
tp6642
I0
s(g210
g113
tp6643
I0
s.